

Microchip MPLAB XC8 Assembler V2.10 build 88905656 
                                                                                               Fri Oct 04 22:42:40 2019

Microchip MPLAB XC8 C Compiler v2.10 (Free license) build 20190730164152 Og1 
     1                           	processor	16F887
     2                           	opt	pw 120
     3                           	opt	flic
     4                           	psect	idataBANK1,global,class=CODE,delta=2
     5                           	psect	cinit,global,class=CODE,merge=1,delta=2
     6                           	psect	dataBANK1,global,class=BANK1,space=1,delta=1
     7                           	psect	cstackBANK1,global,class=BANK1,space=1,delta=1
     8                           	psect	cstackCOMMON,global,class=COMMON,space=1,delta=1
     9                           	psect	cstackBANK0,global,class=BANK0,space=1,delta=1
    10                           	psect	maintext,global,class=CODE,split=1,delta=2
    11                           	psect	text1,local,class=CODE,merge=1,delta=2
    12                           	psect	text2,local,class=CODE,merge=1,delta=2
    13                           	psect	text3,local,class=CODE,merge=1,delta=2
    14                           	psect	text4,local,class=CODE,merge=1,delta=2,group=1
    15                           	psect	text5,local,class=CODE,merge=1,delta=2,group=1
    16                           	psect	text6,local,class=CODE,merge=1,delta=2,group=1
    17                           	psect	text7,local,class=CODE,merge=1,delta=2,group=1
    18                           	psect	text8,local,class=CODE,merge=1,delta=2
    19                           	psect	text9,local,class=CODE,merge=1,delta=2,group=1
    20                           	psect	text10,local,class=CODE,merge=1,delta=2,group=1
    21                           	dabs	1,0x7E,2
    22  0000                     
    23                           ; Version 2.10
    24                           ; Generated 31/07/2019 GMT
    25                           ; 
    26                           ; Copyright © 2019, Microchip Technology Inc. and its subsidiaries ("Microchip")
    27                           ; All rights reserved.
    28                           ; 
    29                           ; This software is developed by Microchip Technology Inc. and its subsidiaries ("Microch
      +                          ip").
    30                           ; 
    31                           ; Redistribution and use in source and binary forms, with or without modification, are
    32                           ; permitted provided that the following conditions are met:
    33                           ; 
    34                           ;     1. Redistributions of source code must retain the above copyright notice, this lis
      +                          t of
    35                           ;        conditions and the following disclaimer.
    36                           ; 
    37                           ;     2. Redistributions in binary form must reproduce the above copyright notice, this 
      +                          list
    38                           ;        of conditions and the following disclaimer in the documentation and/or other
    39                           ;        materials provided with the distribution.
    40                           ; 
    41                           ;     3. Microchip's name may not be used to endorse or promote products derived from th
      +                          is
    42                           ;        software without specific prior written permission.
    43                           ; 
    44                           ; THIS SOFTWARE IS PROVIDED BY MICROCHIP "AS IS" AND ANY EXPRESS OR IMPLIED WARRANTIES,
    45                           ; INCLUDING, BUT NOT LIMITED TO, THE IMPLIED WARRANTIES OF MERCHANTABILITY AND FITNESS F
      +                          OR
    46                           ; PURPOSE ARE DISCLAIMED.  IN NO EVENT SHALL MICROCHIP BE LIABLE FOR ANY DIRECT, INDIREC
      +                          T,
    47                           ; INCIDENTAL, SPECIAL, EXEMPLARY, OR CONSEQUENTIAL DAMAGES (INCLUDING BUT NOT LIMITED TO
    48                           ; PROCUREMENT OF SUBSTITUTE GOODS OR SERVICES; LOSS OF USE, DATA OR PROFITS; OR BUSINESS
    49                           ; INTERRUPTION) HOWSOEVER CAUSED AND ON ANY THEORY OF LIABILITY, WHETHER IN CONTRACT, ST
      +                          RICT
    50                           ; LIABILITY, OR TORT (INCLUDING NEGLIGENCE OR OTHERWISE) ARISING IN ANY WAY OUT OF THE U
      +                          SE OF
    51                           ; THIS SOFTWARE, EVEN IF ADVISED OF THE POSSIBILITY OF SUCH DAMAGE.
    52                           ; 
    53                           ; 
    54                           ; Code-generator required, PIC16F887 Definitions
    55                           ; 
    56                           ; SFR Addresses
    57  0000                     	;# 
    58  0001                     	;# 
    59  0002                     	;# 
    60  0003                     	;# 
    61  0004                     	;# 
    62  0005                     	;# 
    63  0006                     	;# 
    64  0007                     	;# 
    65  0008                     	;# 
    66  0009                     	;# 
    67  000A                     	;# 
    68  000B                     	;# 
    69  000C                     	;# 
    70  000D                     	;# 
    71  000E                     	;# 
    72  000E                     	;# 
    73  000F                     	;# 
    74  0010                     	;# 
    75  0011                     	;# 
    76  0012                     	;# 
    77  0013                     	;# 
    78  0014                     	;# 
    79  0015                     	;# 
    80  0015                     	;# 
    81  0016                     	;# 
    82  0017                     	;# 
    83  0018                     	;# 
    84  0019                     	;# 
    85  001A                     	;# 
    86  001B                     	;# 
    87  001B                     	;# 
    88  001C                     	;# 
    89  001D                     	;# 
    90  001E                     	;# 
    91  001F                     	;# 
    92  0081                     	;# 
    93  0085                     	;# 
    94  0086                     	;# 
    95  0087                     	;# 
    96  0088                     	;# 
    97  0089                     	;# 
    98  008C                     	;# 
    99  008D                     	;# 
   100  008E                     	;# 
   101  008F                     	;# 
   102  0090                     	;# 
   103  0091                     	;# 
   104  0092                     	;# 
   105  0093                     	;# 
   106  0093                     	;# 
   107  0093                     	;# 
   108  0094                     	;# 
   109  0095                     	;# 
   110  0096                     	;# 
   111  0097                     	;# 
   112  0098                     	;# 
   113  0099                     	;# 
   114  009A                     	;# 
   115  009B                     	;# 
   116  009C                     	;# 
   117  009D                     	;# 
   118  009E                     	;# 
   119  009F                     	;# 
   120  0105                     	;# 
   121  0107                     	;# 
   122  0108                     	;# 
   123  0109                     	;# 
   124  010C                     	;# 
   125  010C                     	;# 
   126  010D                     	;# 
   127  010E                     	;# 
   128  010F                     	;# 
   129  0185                     	;# 
   130  0187                     	;# 
   131  0188                     	;# 
   132  0189                     	;# 
   133  018C                     	;# 
   134  018D                     	;# 
   135  0000                     	;# 
   136  0001                     	;# 
   137  0002                     	;# 
   138  0003                     	;# 
   139  0004                     	;# 
   140  0005                     	;# 
   141  0006                     	;# 
   142  0007                     	;# 
   143  0008                     	;# 
   144  0009                     	;# 
   145  000A                     	;# 
   146  000B                     	;# 
   147  000C                     	;# 
   148  000D                     	;# 
   149  000E                     	;# 
   150  000E                     	;# 
   151  000F                     	;# 
   152  0010                     	;# 
   153  0011                     	;# 
   154  0012                     	;# 
   155  0013                     	;# 
   156  0014                     	;# 
   157  0015                     	;# 
   158  0015                     	;# 
   159  0016                     	;# 
   160  0017                     	;# 
   161  0018                     	;# 
   162  0019                     	;# 
   163  001A                     	;# 
   164  001B                     	;# 
   165  001B                     	;# 
   166  001C                     	;# 
   167  001D                     	;# 
   168  001E                     	;# 
   169  001F                     	;# 
   170  0081                     	;# 
   171  0085                     	;# 
   172  0086                     	;# 
   173  0087                     	;# 
   174  0088                     	;# 
   175  0089                     	;# 
   176  008C                     	;# 
   177  008D                     	;# 
   178  008E                     	;# 
   179  008F                     	;# 
   180  0090                     	;# 
   181  0091                     	;# 
   182  0092                     	;# 
   183  0093                     	;# 
   184  0093                     	;# 
   185  0093                     	;# 
   186  0094                     	;# 
   187  0095                     	;# 
   188  0096                     	;# 
   189  0097                     	;# 
   190  0098                     	;# 
   191  0099                     	;# 
   192  009A                     	;# 
   193  009B                     	;# 
   194  009C                     	;# 
   195  009D                     	;# 
   196  009E                     	;# 
   197  009F                     	;# 
   198  0105                     	;# 
   199  0107                     	;# 
   200  0108                     	;# 
   201  0109                     	;# 
   202  010C                     	;# 
   203  010C                     	;# 
   204  010D                     	;# 
   205  010E                     	;# 
   206  010F                     	;# 
   207  0185                     	;# 
   208  0187                     	;# 
   209  0188                     	;# 
   210  0189                     	;# 
   211  018C                     	;# 
   212  018D                     	;# 
   213  0000                     	;# 
   214  0001                     	;# 
   215  0002                     	;# 
   216  0003                     	;# 
   217  0004                     	;# 
   218  0005                     	;# 
   219  0006                     	;# 
   220  0007                     	;# 
   221  0008                     	;# 
   222  0009                     	;# 
   223  000A                     	;# 
   224  000B                     	;# 
   225  000C                     	;# 
   226  000D                     	;# 
   227  000E                     	;# 
   228  000E                     	;# 
   229  000F                     	;# 
   230  0010                     	;# 
   231  0011                     	;# 
   232  0012                     	;# 
   233  0013                     	;# 
   234  0014                     	;# 
   235  0015                     	;# 
   236  0015                     	;# 
   237  0016                     	;# 
   238  0017                     	;# 
   239  0018                     	;# 
   240  0019                     	;# 
   241  001A                     	;# 
   242  001B                     	;# 
   243  001B                     	;# 
   244  001C                     	;# 
   245  001D                     	;# 
   246  001E                     	;# 
   247  001F                     	;# 
   248  0081                     	;# 
   249  0085                     	;# 
   250  0086                     	;# 
   251  0087                     	;# 
   252  0088                     	;# 
   253  0089                     	;# 
   254  008C                     	;# 
   255  008D                     	;# 
   256  008E                     	;# 
   257  008F                     	;# 
   258  0090                     	;# 
   259  0091                     	;# 
   260  0092                     	;# 
   261  0093                     	;# 
   262  0093                     	;# 
   263  0093                     	;# 
   264  0094                     	;# 
   265  0095                     	;# 
   266  0096                     	;# 
   267  0097                     	;# 
   268  0098                     	;# 
   269  0099                     	;# 
   270  009A                     	;# 
   271  009B                     	;# 
   272  009C                     	;# 
   273  009D                     	;# 
   274  009E                     	;# 
   275  009F                     	;# 
   276  0105                     	;# 
   277  0107                     	;# 
   278  0108                     	;# 
   279  0109                     	;# 
   280  010C                     	;# 
   281  010C                     	;# 
   282  010D                     	;# 
   283  010E                     	;# 
   284  010F                     	;# 
   285  0185                     	;# 
   286  0187                     	;# 
   287  0188                     	;# 
   288  0189                     	;# 
   289  018C                     	;# 
   290  018D                     	;# 
   291  0000                     	;# 
   292  0001                     	;# 
   293  0002                     	;# 
   294  0003                     	;# 
   295  0004                     	;# 
   296  0005                     	;# 
   297  0006                     	;# 
   298  0007                     	;# 
   299  0008                     	;# 
   300  0009                     	;# 
   301  000A                     	;# 
   302  000B                     	;# 
   303  000C                     	;# 
   304  000D                     	;# 
   305  000E                     	;# 
   306  000E                     	;# 
   307  000F                     	;# 
   308  0010                     	;# 
   309  0011                     	;# 
   310  0012                     	;# 
   311  0013                     	;# 
   312  0014                     	;# 
   313  0015                     	;# 
   314  0015                     	;# 
   315  0016                     	;# 
   316  0017                     	;# 
   317  0018                     	;# 
   318  0019                     	;# 
   319  001A                     	;# 
   320  001B                     	;# 
   321  001B                     	;# 
   322  001C                     	;# 
   323  001D                     	;# 
   324  001E                     	;# 
   325  001F                     	;# 
   326  0081                     	;# 
   327  0085                     	;# 
   328  0086                     	;# 
   329  0087                     	;# 
   330  0088                     	;# 
   331  0089                     	;# 
   332  008C                     	;# 
   333  008D                     	;# 
   334  008E                     	;# 
   335  008F                     	;# 
   336  0090                     	;# 
   337  0091                     	;# 
   338  0092                     	;# 
   339  0093                     	;# 
   340  0093                     	;# 
   341  0093                     	;# 
   342  0094                     	;# 
   343  0095                     	;# 
   344  0096                     	;# 
   345  0097                     	;# 
   346  0098                     	;# 
   347  0099                     	;# 
   348  009A                     	;# 
   349  009B                     	;# 
   350  009C                     	;# 
   351  009D                     	;# 
   352  009E                     	;# 
   353  009F                     	;# 
   354  0105                     	;# 
   355  0107                     	;# 
   356  0108                     	;# 
   357  0109                     	;# 
   358  010C                     	;# 
   359  010C                     	;# 
   360  010D                     	;# 
   361  010E                     	;# 
   362  010F                     	;# 
   363  0185                     	;# 
   364  0187                     	;# 
   365  0188                     	;# 
   366  0189                     	;# 
   367  018C                     	;# 
   368  018D                     	;# 
   369                           
   370                           	psect	idataBANK1
   371  000C                     __pidataBANK1:	
   372                           
   373                           ;initializer for _freq
   374  000C  3401               	retlw	1
   375  000D  3400               	retlw	0
   376  000E  3400               	retlw	0
   377  000F  3400               	retlw	0
   378  0015                     _CCPR1L	set	21
   379  0012                     _T2CONbits	set	18
   380  0017                     _CCP1CONbits	set	23
   381  00BC                     _CCP1Y	set	188
   382  00BD                     _CCP1X	set	189
   383  0091                     _T2CKPS1	set	145
   384  0090                     _T2CKPS0	set	144
   385  0092                     _PR2	set	146
   386  0087                     _TRISCbits	set	135
   387                           
   388                           ; #config settings
   389  0000                     
   390                           	psect	cinit
   391  07E2                     start_initialization:	
   392  07E2                     __initialization:	
   393                           
   394                           ; Initialize objects allocated to BANK1
   395  07E2  1683               	bsf	3,5	;RP0=1, select bank1
   396  07E3  1303               	bcf	3,6	;RP1=0, select bank1
   397  07E4  120A  118A  200C  120A  118A  	fcall	__pidataBANK1	;fetch initializer
   398  07E9  00A0               	movwf	__pdataBANK1& (0+127)
   399  07EA  120A  118A  200D  120A  118A  	fcall	__pidataBANK1+1	;fetch initializer
   400  07EF  00A1               	movwf	(__pdataBANK1+1)& (0+127)
   401  07F0  120A  118A  200E  120A  118A  	fcall	__pidataBANK1+2	;fetch initializer
   402  07F5  00A2               	movwf	(__pdataBANK1+2)& (0+127)
   403  07F6  120A  118A  200F  120A  118A  	fcall	__pidataBANK1+3	;fetch initializer
   404  07FB  00A3               	movwf	(__pdataBANK1+3)& (0+127)
   405  07FC                     end_of_initialization:	
   406                           ;End of C runtime variable initialization code
   407                           
   408  07FC                     __end_of__initialization:	
   409  07FC  0183               	clrf	3
   410  07FD  120A  158A  2F3E   	ljmp	_main	;jump to C main() function
   411                           
   412                           	psect	dataBANK1
   413  00A0                     __pdataBANK1:	
   414  00A0                     _freq:	
   415  00A0                     	ds	4
   416                           
   417                           	psect	cstackBANK1
   418  00A4                     __pcstackBANK1:	
   419  00A4                     ?_Pwm1_Duty:	
   420  00A4                     Pwm1_Duty@duty:	
   421                           ; 1 bytes @ 0x0
   422                           
   423                           
   424                           ; 2 bytes @ 0x0
   425  00A4                     	ds	2
   426  00A6                     ??_Pwm1_Duty:	
   427                           
   428                           ; 1 bytes @ 0x2
   429  00A6                     	ds	2
   430                           
   431                           	psect	cstackCOMMON
   432  0070                     __pcstackCOMMON:	
   433  0070                     ?_Pwm1_Start:	
   434  0070                     ??_Pwm1_Start:	
   435                           ; 1 bytes @ 0x0
   436                           
   437  0070                     ?__Umul8_16:	
   438                           ; 1 bytes @ 0x0
   439                           
   440  0070                     ?_main:	
   441                           ; 2 bytes @ 0x0
   442                           
   443  0070                     ?___aldiv:	
   444                           ; 2 bytes @ 0x0
   445                           
   446  0070                     __Umul8_16@multiplicand:	
   447                           ; 4 bytes @ 0x0
   448                           
   449  0070                     ___aldiv@divisor:	
   450                           ; 1 bytes @ 0x0
   451                           
   452                           
   453                           ; 4 bytes @ 0x0
   454  0070                     	ds	2
   455  0072                     ??__Umul8_16:	
   456                           
   457                           ; 1 bytes @ 0x2
   458  0072                     	ds	2
   459  0074                     __Umul8_16@product:	
   460  0074                     ___aldiv@dividend:	
   461                           ; 2 bytes @ 0x4
   462                           
   463                           
   464                           ; 4 bytes @ 0x4
   465  0074                     	ds	2
   466  0076                     __Umul8_16@word_mpld:	
   467                           
   468                           ; 2 bytes @ 0x6
   469  0076                     	ds	2
   470  0078                     ??___aldiv:	
   471  0078                     __Umul8_16@multiplier:	
   472                           ; 1 bytes @ 0x8
   473                           
   474                           
   475                           ; 1 bytes @ 0x8
   476  0078                     	ds	1
   477  0079                     ??_Pwm1_Init:	
   478  0079                     ??___xxtofl:	
   479                           ; 1 bytes @ 0x9
   480                           
   481                           
   482                           ; 1 bytes @ 0x9
   483  0079                     	ds	4
   484  007D                     ??_main:	
   485                           
   486                           	psect	cstackBANK0
   487  0020                     __pcstackBANK0:	
   488                           ; 1 bytes @ 0xD
   489                           
   490  0020                     ___aldiv@counter:	
   491                           
   492                           ; 1 bytes @ 0x0
   493  0020                     	ds	1
   494  0021                     ___aldiv@sign:	
   495                           
   496                           ; 1 bytes @ 0x1
   497  0021                     	ds	1
   498  0022                     ___aldiv@quotient:	
   499                           
   500                           ; 4 bytes @ 0x2
   501  0022                     	ds	4
   502  0026                     ?_Pwm1_Init:	
   503  0026                     ?___xxtofl:	
   504                           ; 1 bytes @ 0x6
   505                           
   506  0026                     Pwm1_Init@frequency:	
   507                           ; 4 bytes @ 0x6
   508                           
   509  0026                     ___xxtofl@val:	
   510                           ; 4 bytes @ 0x6
   511                           
   512                           
   513                           ; 4 bytes @ 0x6
   514  0026                     	ds	4
   515  002A                     ___xxtofl@sign:	
   516                           
   517                           ; 1 bytes @ 0xA
   518  002A                     	ds	1
   519  002B                     ___xxtofl@exp:	
   520                           
   521                           ; 1 bytes @ 0xB
   522  002B                     	ds	1
   523  002C                     ___xxtofl@arg:	
   524                           
   525                           ; 4 bytes @ 0xC
   526  002C                     	ds	4
   527  0030                     ?_Pwm_Call_Duty:	
   528  0030                     ?___fldiv:	
   529                           ; 4 bytes @ 0x10
   530                           
   531  0030                     ___fldiv@a:	
   532                           ; 4 bytes @ 0x10
   533                           
   534                           
   535                           ; 4 bytes @ 0x10
   536  0030                     	ds	4
   537  0034                     ??_Pwm_Call_Duty:	
   538  0034                     ___fldiv@b:	
   539                           ; 1 bytes @ 0x14
   540                           
   541                           
   542                           ; 4 bytes @ 0x14
   543  0034                     	ds	4
   544  0038                     ??___fldiv:	
   545                           
   546                           ; 1 bytes @ 0x18
   547  0038                     	ds	5
   548  003D                     ___fldiv@rem:	
   549                           
   550                           ; 4 bytes @ 0x1D
   551  003D                     	ds	4
   552  0041                     ___fldiv@sign:	
   553                           
   554                           ; 1 bytes @ 0x21
   555  0041                     	ds	1
   556  0042                     ___fldiv@new_exp:	
   557                           
   558                           ; 2 bytes @ 0x22
   559  0042                     	ds	2
   560  0044                     ___fldiv@grs:	
   561                           
   562                           ; 4 bytes @ 0x24
   563  0044                     	ds	4
   564  0048                     ___fldiv@bexp:	
   565                           
   566                           ; 1 bytes @ 0x28
   567  0048                     	ds	1
   568  0049                     ___fldiv@aexp:	
   569                           
   570                           ; 1 bytes @ 0x29
   571  0049                     	ds	1
   572  004A                     ?___flmul:	
   573  004A                     ___flmul@b:	
   574                           ; 4 bytes @ 0x2A
   575                           
   576                           
   577                           ; 4 bytes @ 0x2A
   578  004A                     	ds	4
   579  004E                     ___flmul@a:	
   580                           
   581                           ; 4 bytes @ 0x2E
   582  004E                     	ds	4
   583  0052                     ??___flmul:	
   584                           
   585                           ; 1 bytes @ 0x32
   586  0052                     	ds	5
   587  0057                     ___flmul@sign:	
   588                           
   589                           ; 1 bytes @ 0x37
   590  0057                     	ds	1
   591  0058                     ___flmul@grs:	
   592                           
   593                           ; 4 bytes @ 0x38
   594  0058                     	ds	4
   595  005C                     ___flmul@aexp:	
   596                           
   597                           ; 1 bytes @ 0x3C
   598  005C                     	ds	1
   599  005D                     ___flmul@bexp:	
   600                           
   601                           ; 1 bytes @ 0x3D
   602  005D                     	ds	1
   603  005E                     ___flmul@prod:	
   604                           
   605                           ; 4 bytes @ 0x3E
   606  005E                     	ds	4
   607  0062                     ___flmul@temp:	
   608                           
   609                           ; 2 bytes @ 0x42
   610  0062                     	ds	2
   611  0064                     ?___fltol:	
   612  0064                     ___fltol@f1:	
   613                           ; 4 bytes @ 0x44
   614                           
   615                           
   616                           ; 4 bytes @ 0x44
   617  0064                     	ds	4
   618  0068                     ??___fltol:	
   619                           
   620                           ; 1 bytes @ 0x48
   621  0068                     	ds	5
   622  006D                     ___fltol@sign1:	
   623                           
   624                           ; 1 bytes @ 0x4D
   625  006D                     	ds	1
   626  006E                     ___fltol@exp1:	
   627                           
   628                           ; 1 bytes @ 0x4E
   629  006E                     	ds	1
   630                           
   631                           	psect	maintext
   632  0F3E                     __pmaintext:	
   633 ;;
   634 ;;Main: autosize = 0, tempsize = 0, incstack = 0, save=0
   635 ;;
   636 ;; *************** function _main *****************
   637 ;; Defined at:
   638 ;;		line 14 in file "main.c"
   639 ;; Parameters:    Size  Location     Type
   640 ;;		None
   641 ;; Auto vars:     Size  Location     Type
   642 ;;		None
   643 ;; Return value:  Size  Location     Type
   644 ;;                  2   13[None  ] int 
   645 ;; Registers used:
   646 ;;		wreg, status,2, status,0, btemp+1, pclath, cstack
   647 ;; Tracked objects:
   648 ;;		On entry : B00/0
   649 ;;		On exit  : 0/0
   650 ;;		Unchanged: 0/0
   651 ;; Data sizes:     COMMON   BANK0   BANK1   BANK3   BANK2
   652 ;;      Params:         0       0       0       0       0
   653 ;;      Locals:         0       0       0       0       0
   654 ;;      Temps:          0       0       0       0       0
   655 ;;      Totals:         0       0       0       0       0
   656 ;;Total ram usage:        0 bytes
   657 ;; Hardware stack levels required when called:    3
   658 ;; This function calls:
   659 ;;		_Pwm1_Duty
   660 ;;		_Pwm1_Init
   661 ;;		_Pwm1_Start
   662 ;; This function is called by:
   663 ;;		Startup code after reset
   664 ;; This function uses a non-reentrant model
   665 ;;
   666                           
   667                           
   668                           ;psect for function _main
   669  0F3E                     _main:	
   670  0F3E                     l1518:	
   671                           ;incstack = 0
   672                           ; Regs used in _main: [wreg+status,2+status,0+btemp+1+pclath+cstack]
   673                           
   674                           
   675                           ;main.c: 16:     Pwm1_Init(1000);
   676  0F3E  3000               	movlw	0
   677  0F3F  1283               	bcf	3,5	;RP0=0, select bank0
   678  0F40  1303               	bcf	3,6	;RP1=0, select bank0
   679  0F41  00A9               	movwf	Pwm1_Init@frequency+3
   680  0F42  3000               	movlw	0
   681  0F43  00A8               	movwf	Pwm1_Init@frequency+2
   682  0F44  3003               	movlw	3
   683  0F45  00A7               	movwf	Pwm1_Init@frequency+1
   684  0F46  30E8               	movlw	232
   685  0F47  00A6               	movwf	Pwm1_Init@frequency
   686  0F48  120A  158A  2761  120A  158A  	fcall	_Pwm1_Init
   687  0F4D                     l1520:	
   688                           
   689                           ;main.c: 17:     Pwm1_Duty(512);
   690  0F4D  3000               	movlw	0
   691  0F4E  1683               	bsf	3,5	;RP0=1, select bank1
   692  0F4F  1303               	bcf	3,6	;RP1=0, select bank1
   693  0F50  00A4               	movwf	Pwm1_Duty@duty^(0+128)
   694  0F51  3002               	movlw	2
   695  0F52  00A5               	movwf	(Pwm1_Duty@duty^(0+128)+1)
   696  0F53  120A  118A  20BE  120A  158A  	fcall	_Pwm1_Duty
   697  0F58                     l1522:	
   698                           
   699                           ;main.c: 18:     Pwm1_Start();
   700  0F58  120A  118A  2010  120A  158A  	fcall	_Pwm1_Start
   701  0F5D                     l14:	
   702                           ;main.c: 20:     while(1){
   703                           
   704  0F5D                     l15:	
   705                           ;main.c: 22:     }
   706                           
   707  0F5D  2F5D               	goto	l14
   708  0F5E  120A  118A  2800   	ljmp	start
   709  0F61                     __end_of_main:	
   710                           
   711                           	psect	text1
   712  0010                     __ptext1:	
   713 ;; *************** function _Pwm1_Start *****************
   714 ;; Defined at:
   715 ;;		line 21 in file "pwm.c"
   716 ;; Parameters:    Size  Location     Type
   717 ;;		None
   718 ;; Auto vars:     Size  Location     Type
   719 ;;		None
   720 ;; Return value:  Size  Location     Type
   721 ;;                  1    wreg      void 
   722 ;; Registers used:
   723 ;;		None
   724 ;; Tracked objects:
   725 ;;		On entry : 0/0
   726 ;;		On exit  : 0/0
   727 ;;		Unchanged: 0/0
   728 ;; Data sizes:     COMMON   BANK0   BANK1   BANK3   BANK2
   729 ;;      Params:         0       0       0       0       0
   730 ;;      Locals:         0       0       0       0       0
   731 ;;      Temps:          0       0       0       0       0
   732 ;;      Totals:         0       0       0       0       0
   733 ;;Total ram usage:        0 bytes
   734 ;; Hardware stack levels used:    1
   735 ;; This function calls:
   736 ;;		Nothing
   737 ;; This function is called by:
   738 ;;		_main
   739 ;; This function uses a non-reentrant model
   740 ;;
   741                           
   742                           
   743                           ;psect for function _Pwm1_Start
   744  0010                     _Pwm1_Start:	
   745  0010                     l1076:	
   746                           ;incstack = 0
   747                           ; Regs used in _Pwm1_Start: []
   748                           
   749                           
   750                           ;pwm.c: 23:    CCP1CONbits.CCP1M3=1;
   751  0010  1283               	bcf	3,5	;RP0=0, select bank0
   752  0011  1303               	bcf	3,6	;RP1=0, select bank0
   753  0012  1597               	bsf	23,3	;volatile
   754                           
   755                           ;pwm.c: 24:    CCP1CONbits.CCP1M2=1;
   756  0013  1517               	bsf	23,2	;volatile
   757                           
   758                           ;pwm.c: 30:    T2CKPS0=1;
   759  0014  1412               	bsf	18,0	;volatile
   760                           
   761                           ;pwm.c: 31:    T2CKPS1=0;
   762  0015  1092               	bcf	18,1	;volatile
   763                           
   764                           ;pwm.c: 39:    T2CONbits.TMR2ON=1;
   765  0016  1512               	bsf	18,2	;volatile
   766                           
   767                           ;pwm.c: 40:    TRISCbits.TRISC2=0;
   768  0017  1683               	bsf	3,5	;RP0=1, select bank1
   769  0018  1303               	bcf	3,6	;RP1=0, select bank1
   770  0019  1107               	bcf	7,2	;volatile
   771  001A                     l43:	
   772  001A  0008               	return
   773  001B                     __end_of_Pwm1_Start:	
   774                           
   775                           	psect	text2
   776  0F61                     __ptext2:	
   777 ;; *************** function _Pwm1_Init *****************
   778 ;; Defined at:
   779 ;;		line 54 in file "pwm.c"
   780 ;; Parameters:    Size  Location     Type
   781 ;;  frequency       4    6[BANK0 ] long 
   782 ;; Auto vars:     Size  Location     Type
   783 ;;		None
   784 ;; Return value:  Size  Location     Type
   785 ;;                  1    wreg      void 
   786 ;; Registers used:
   787 ;;		wreg, status,2, status,0, pclath, cstack
   788 ;; Tracked objects:
   789 ;;		On entry : 0/0
   790 ;;		On exit  : 0/0
   791 ;;		Unchanged: 0/0
   792 ;; Data sizes:     COMMON   BANK0   BANK1   BANK3   BANK2
   793 ;;      Params:         0       4       0       0       0
   794 ;;      Locals:         0       0       0       0       0
   795 ;;      Temps:          4       0       0       0       0
   796 ;;      Totals:         4       4       0       0       0
   797 ;;Total ram usage:        8 bytes
   798 ;; Hardware stack levels used:    1
   799 ;; Hardware stack levels required when called:    1
   800 ;; This function calls:
   801 ;;		___aldiv
   802 ;; This function is called by:
   803 ;;		_main
   804 ;; This function uses a non-reentrant model
   805 ;;
   806                           
   807                           
   808                           ;psect for function _Pwm1_Init
   809  0F61                     _Pwm1_Init:	
   810  0F61                     l1504:	
   811                           ;incstack = 0
   812                           ; Regs used in _Pwm1_Init: [wreg+status,2+status,0+pclath+cstack]
   813                           
   814                           
   815                           ;pwm.c: 55:     PR2=((4000000)/(frequency*4*4));
   816  0F61  1283               	bcf	3,5	;RP0=0, select bank0
   817  0F62  1303               	bcf	3,6	;RP1=0, select bank0
   818  0F63  0826               	movf	Pwm1_Init@frequency,w
   819  0F64  00F9               	movwf	??_Pwm1_Init
   820  0F65  0827               	movf	Pwm1_Init@frequency+1,w
   821  0F66  00FA               	movwf	??_Pwm1_Init+1
   822  0F67  0828               	movf	Pwm1_Init@frequency+2,w
   823  0F68  00FB               	movwf	??_Pwm1_Init+2
   824  0F69  0829               	movf	Pwm1_Init@frequency+3,w
   825  0F6A  00FC               	movwf	??_Pwm1_Init+3
   826  0F6B  3002               	movlw	2
   827  0F6C                     u2145:	
   828  0F6C  1003               	clrc
   829  0F6D  0DF9               	rlf	??_Pwm1_Init,f
   830  0F6E  0DFA               	rlf	??_Pwm1_Init+1,f
   831  0F6F  0DFB               	rlf	??_Pwm1_Init+2,f
   832  0F70  0DFC               	rlf	??_Pwm1_Init+3,f
   833  0F71                     u2140:	
   834  0F71  3EFF               	addlw	-1
   835  0F72  1D03               	skipz
   836  0F73  2F6C               	goto	u2145
   837  0F74  3002               	movlw	2
   838  0F75                     u2155:	
   839  0F75  1003               	clrc
   840  0F76  0DF9               	rlf	??_Pwm1_Init,f
   841  0F77  0DFA               	rlf	??_Pwm1_Init+1,f
   842  0F78  0DFB               	rlf	??_Pwm1_Init+2,f
   843  0F79  0DFC               	rlf	??_Pwm1_Init+3,f
   844  0F7A                     u2150:	
   845  0F7A  3EFF               	addlw	-1
   846  0F7B  1D03               	skipz
   847  0F7C  2F75               	goto	u2155
   848  0F7D  087C               	movf	??_Pwm1_Init+3,w
   849  0F7E  00F3               	movwf	___aldiv@divisor+3
   850  0F7F  087B               	movf	??_Pwm1_Init+2,w
   851  0F80  00F2               	movwf	___aldiv@divisor+2
   852  0F81  087A               	movf	??_Pwm1_Init+1,w
   853  0F82  00F1               	movwf	___aldiv@divisor+1
   854  0F83  0879               	movf	??_Pwm1_Init,w
   855  0F84  00F0               	movwf	___aldiv@divisor
   856  0F85  3000               	movlw	0
   857  0F86  00F7               	movwf	___aldiv@dividend+3
   858  0F87  303D               	movlw	61
   859  0F88  00F6               	movwf	___aldiv@dividend+2
   860  0F89  3009               	movlw	9
   861  0F8A  00F5               	movwf	___aldiv@dividend+1
   862  0F8B  3000               	movlw	0
   863  0F8C  00F4               	movwf	___aldiv@dividend
   864  0F8D  120A  118A  214B  120A  158A  	fcall	___aldiv
   865  0F92  0870               	movf	?___aldiv,w
   866  0F93  1683               	bsf	3,5	;RP0=1, select bank1
   867  0F94  1303               	bcf	3,6	;RP1=0, select bank1
   868  0F95  0092               	movwf	18	;volatile
   869  0F96                     l1506:	
   870                           
   871                           ;pwm.c: 56:     freq=frequency;
   872  0F96  1283               	bcf	3,5	;RP0=0, select bank0
   873  0F97  1303               	bcf	3,6	;RP1=0, select bank0
   874  0F98  0829               	movf	Pwm1_Init@frequency+3,w
   875  0F99  1683               	bsf	3,5	;RP0=1, select bank1
   876  0F9A  1303               	bcf	3,6	;RP1=0, select bank1
   877  0F9B  00A3               	movwf	(_freq+3)^(0+128)
   878  0F9C  1283               	bcf	3,5	;RP0=0, select bank0
   879  0F9D  1303               	bcf	3,6	;RP1=0, select bank0
   880  0F9E  0828               	movf	Pwm1_Init@frequency+2,w
   881  0F9F  1683               	bsf	3,5	;RP0=1, select bank1
   882  0FA0  1303               	bcf	3,6	;RP1=0, select bank1
   883  0FA1  00A2               	movwf	(_freq+2)^(0+128)
   884  0FA2  1283               	bcf	3,5	;RP0=0, select bank0
   885  0FA3  1303               	bcf	3,6	;RP1=0, select bank0
   886  0FA4  0827               	movf	Pwm1_Init@frequency+1,w
   887  0FA5  1683               	bsf	3,5	;RP0=1, select bank1
   888  0FA6  1303               	bcf	3,6	;RP1=0, select bank1
   889  0FA7  00A1               	movwf	(_freq+1)^(0+128)
   890  0FA8  1283               	bcf	3,5	;RP0=0, select bank0
   891  0FA9  1303               	bcf	3,6	;RP1=0, select bank0
   892  0FAA  0826               	movf	Pwm1_Init@frequency,w
   893  0FAB  1683               	bsf	3,5	;RP0=1, select bank1
   894  0FAC  1303               	bcf	3,6	;RP1=0, select bank1
   895  0FAD  00A0               	movwf	_freq^(0+128)
   896  0FAE                     l50:	
   897  0FAE  0008               	return
   898  0FAF                     __end_of_Pwm1_Init:	
   899                           
   900                           	psect	text3
   901  00BE                     __ptext3:	
   902 ;; *************** function _Pwm1_Duty *****************
   903 ;; Defined at:
   904 ;;		line 43 in file "pwm.c"
   905 ;; Parameters:    Size  Location     Type
   906 ;;  duty            2    0[BANK1 ] unsigned int 
   907 ;; Auto vars:     Size  Location     Type
   908 ;;		None
   909 ;; Return value:  Size  Location     Type
   910 ;;                  1    wreg      void 
   911 ;; Registers used:
   912 ;;		wreg, status,2, status,0, btemp+1, pclath, cstack
   913 ;; Tracked objects:
   914 ;;		On entry : 0/0
   915 ;;		On exit  : 0/0
   916 ;;		Unchanged: 0/0
   917 ;; Data sizes:     COMMON   BANK0   BANK1   BANK3   BANK2
   918 ;;      Params:         0       0       2       0       0
   919 ;;      Locals:         0       0       0       0       0
   920 ;;      Temps:          0       0       2       0       0
   921 ;;      Totals:         0       0       4       0       0
   922 ;;Total ram usage:        4 bytes
   923 ;; Hardware stack levels used:    1
   924 ;; Hardware stack levels required when called:    2
   925 ;; This function calls:
   926 ;;		_Pwm_Call_Duty
   927 ;;		___fldiv
   928 ;;		___flmul
   929 ;;		___fltol
   930 ;;		___xxtofl
   931 ;; This function is called by:
   932 ;;		_main
   933 ;; This function uses a non-reentrant model
   934 ;;
   935                           
   936                           
   937                           ;psect for function _Pwm1_Duty
   938  00BE                     _Pwm1_Duty:	
   939  00BE                     l1508:	
   940                           ;incstack = 0
   941                           ; Regs used in _Pwm1_Duty: [wreg+status,2+status,0+btemp+1+pclath+cstack]
   942                           
   943                           
   944                           ;pwm.c: 44:     if(duty < 1024){
   945  00BE  3004               	movlw	4
   946  00BF  1683               	bsf	3,5	;RP0=1, select bank1
   947  00C0  1303               	bcf	3,6	;RP1=0, select bank1
   948  00C1  0225               	subwf	(Pwm1_Duty@duty+1)^(0+128),w
   949  00C2  3000               	movlw	0
   950  00C3  1903               	skipnz
   951  00C4  0224               	subwf	Pwm1_Duty@duty^(0+128),w
   952  00C5  1803               	skipnc
   953  00C6  28C8               	goto	u2161
   954  00C7  28C9               	goto	u2160
   955  00C8                     u2161:	
   956  00C8  294A               	goto	l47
   957  00C9                     u2160:	
   958  00C9                     l1510:	
   959                           
   960                           ;pwm.c: 45:         duty=(double)duty/1023*Pwm_Call_Duty();
   961  00C9  0824               	movf	Pwm1_Duty@duty^(0+128),w
   962  00CA  1283               	bcf	3,5	;RP0=0, select bank0
   963  00CB  1303               	bcf	3,6	;RP1=0, select bank0
   964  00CC  00A6               	movwf	___xxtofl@val
   965  00CD  1683               	bsf	3,5	;RP0=1, select bank1
   966  00CE  1303               	bcf	3,6	;RP1=0, select bank1
   967  00CF  0825               	movf	(Pwm1_Duty@duty+1)^(0+128),w
   968  00D0  1283               	bcf	3,5	;RP0=0, select bank0
   969  00D1  1303               	bcf	3,6	;RP1=0, select bank0
   970  00D2  00A7               	movwf	___xxtofl@val+1
   971  00D3  01A8               	clrf	___xxtofl@val+2
   972  00D4  01A9               	clrf	___xxtofl@val+3
   973  00D5  3000               	movlw	0
   974  00D6  120A  118A  21E8  120A  118A  	fcall	___xxtofl
   975  00DB  1283               	bcf	3,5	;RP0=0, select bank0
   976  00DC  1303               	bcf	3,6	;RP1=0, select bank0
   977  00DD  0829               	movf	?___xxtofl+3,w
   978  00DE  00B7               	movwf	___fldiv@b+3
   979  00DF  0828               	movf	?___xxtofl+2,w
   980  00E0  00B6               	movwf	___fldiv@b+2
   981  00E1  0827               	movf	?___xxtofl+1,w
   982  00E2  00B5               	movwf	___fldiv@b+1
   983  00E3  0826               	movf	?___xxtofl,w
   984  00E4  00B4               	movwf	___fldiv@b
   985  00E5  3044               	movlw	68
   986  00E6  00B3               	movwf	___fldiv@a+3
   987  00E7  307F               	movlw	127
   988  00E8  00B2               	movwf	___fldiv@a+2
   989  00E9  30C0               	movlw	192
   990  00EA  00B1               	movwf	___fldiv@a+1
   991  00EB  3000               	movlw	0
   992  00EC  00B0               	movwf	___fldiv@a
   993  00ED  120A  118A  22A4  120A  118A  	fcall	___fldiv
   994  00F2  1283               	bcf	3,5	;RP0=0, select bank0
   995  00F3  1303               	bcf	3,6	;RP1=0, select bank0
   996  00F4  0833               	movf	?___fldiv+3,w
   997  00F5  00D1               	movwf	___flmul@a+3
   998  00F6  0832               	movf	?___fldiv+2,w
   999  00F7  00D0               	movwf	___flmul@a+2
  1000  00F8  0831               	movf	?___fldiv+1,w
  1001  00F9  00CF               	movwf	___flmul@a+1
  1002  00FA  0830               	movf	?___fldiv,w
  1003  00FB  00CE               	movwf	___flmul@a
  1004  00FC  120A  158A  27AF  120A  118A  	fcall	_Pwm_Call_Duty
  1005  0101  1283               	bcf	3,5	;RP0=0, select bank0
  1006  0102  1303               	bcf	3,6	;RP1=0, select bank0
  1007  0103  0833               	movf	?_Pwm_Call_Duty+3,w
  1008  0104  00CD               	movwf	___flmul@b+3
  1009  0105  0832               	movf	?_Pwm_Call_Duty+2,w
  1010  0106  00CC               	movwf	___flmul@b+2
  1011  0107  0831               	movf	?_Pwm_Call_Duty+1,w
  1012  0108  00CB               	movwf	___flmul@b+1
  1013  0109  0830               	movf	?_Pwm_Call_Duty,w
  1014  010A  00CA               	movwf	___flmul@b
  1015  010B  120A  118A  2481  120A  118A  	fcall	___flmul
  1016  0110  1283               	bcf	3,5	;RP0=0, select bank0
  1017  0111  1303               	bcf	3,6	;RP1=0, select bank0
  1018  0112  084D               	movf	?___flmul+3,w
  1019  0113  00E7               	movwf	___fltol@f1+3
  1020  0114  084C               	movf	?___flmul+2,w
  1021  0115  00E6               	movwf	___fltol@f1+2
  1022  0116  084B               	movf	?___flmul+1,w
  1023  0117  00E5               	movwf	___fltol@f1+1
  1024  0118  084A               	movf	?___flmul,w
  1025  0119  00E4               	movwf	___fltol@f1
  1026  011A  120A  118A  2042  120A  118A  	fcall	___fltol
  1027  011F  1283               	bcf	3,5	;RP0=0, select bank0
  1028  0120  1303               	bcf	3,6	;RP1=0, select bank0
  1029  0121  0865               	movf	?___fltol+1,w
  1030  0122  1683               	bsf	3,5	;RP0=1, select bank1
  1031  0123  1303               	bcf	3,6	;RP1=0, select bank1
  1032  0124  00A5               	movwf	(Pwm1_Duty@duty+1)^(0+128)
  1033  0125  1283               	bcf	3,5	;RP0=0, select bank0
  1034  0126  1303               	bcf	3,6	;RP1=0, select bank0
  1035  0127  0864               	movf	?___fltol,w
  1036  0128  1683               	bsf	3,5	;RP0=1, select bank1
  1037  0129  1303               	bcf	3,6	;RP1=0, select bank1
  1038  012A  00A4               	movwf	Pwm1_Duty@duty^(0+128)
  1039  012B                     l1512:	
  1040                           
  1041                           ;pwm.c: 46:         CCP1X=duty&2;
  1042  012B  1283               	bcf	3,5	;RP0=0, select bank0
  1043  012C  1303               	bcf	3,6	;RP1=0, select bank0
  1044  012D  1297               	bcf	23,5	;volatile
  1045  012E                     l1514:	
  1046                           
  1047                           ;pwm.c: 47:         CCP1Y=duty&1;
  1048  012E  1683               	bsf	3,5	;RP0=1, select bank1
  1049  012F  1303               	bcf	3,6	;RP1=0, select bank1
  1050  0130  1824               	btfsc	Pwm1_Duty@duty^(0+128),0
  1051  0131  2933               	goto	u2171
  1052  0132  2937               	goto	u2170
  1053  0133                     u2171:	
  1054  0133  1283               	bcf	3,5	;RP0=0, select bank0
  1055  0134  1303               	bcf	3,6	;RP1=0, select bank0
  1056  0135  1617               	bsf	23,4	;volatile
  1057  0136  293A               	goto	u2184
  1058  0137                     u2170:	
  1059  0137  1283               	bcf	3,5	;RP0=0, select bank0
  1060  0138  1303               	bcf	3,6	;RP1=0, select bank0
  1061  0139  1217               	bcf	23,4	;volatile
  1062  013A                     u2184:	
  1063  013A                     l1516:	
  1064                           
  1065                           ;pwm.c: 48:         CCPR1L=duty>>2;
  1066  013A  1683               	bsf	3,5	;RP0=1, select bank1
  1067  013B  1303               	bcf	3,6	;RP1=0, select bank1
  1068  013C  0825               	movf	(Pwm1_Duty@duty+1)^(0+128),w
  1069  013D  00A7               	movwf	(??_Pwm1_Duty^(0+128)+1)
  1070  013E  0824               	movf	Pwm1_Duty@duty^(0+128),w
  1071  013F  00A6               	movwf	??_Pwm1_Duty^(0+128)
  1072  0140  1003               	clrc
  1073  0141  0CA7               	rrf	(??_Pwm1_Duty^(0+128)+1),f
  1074  0142  0CA6               	rrf	??_Pwm1_Duty^(0+128),f
  1075  0143  1003               	clrc
  1076  0144  0CA7               	rrf	(??_Pwm1_Duty^(0+128)+1),f
  1077  0145  0CA6               	rrf	??_Pwm1_Duty^(0+128),f
  1078  0146  0826               	movf	??_Pwm1_Duty^(0+128),w
  1079  0147  1283               	bcf	3,5	;RP0=0, select bank0
  1080  0148  1303               	bcf	3,6	;RP1=0, select bank0
  1081  0149  0095               	movwf	21	;volatile
  1082  014A                     l47:	
  1083  014A  0008               	return
  1084  014B                     __end_of_Pwm1_Duty:	
  1085                           
  1086                           	psect	text4
  1087  0042                     __ptext4:	
  1088 ;; *************** function ___fltol *****************
  1089 ;; Defined at:
  1090 ;;		line 43 in file "C:\Program Files (x86)\Microchip\xc8\v2.10\pic\sources\c90\common\fltol.c"
  1091 ;; Parameters:    Size  Location     Type
  1092 ;;  f1              4   68[BANK0 ] void 
  1093 ;; Auto vars:     Size  Location     Type
  1094 ;;  exp1            1   78[BANK0 ] unsigned char 
  1095 ;;  sign1           1   77[BANK0 ] unsigned char 
  1096 ;; Return value:  Size  Location     Type
  1097 ;;                  4   68[BANK0 ] long 
  1098 ;; Registers used:
  1099 ;;		wreg, status,2, status,0
  1100 ;; Tracked objects:
  1101 ;;		On entry : 0/0
  1102 ;;		On exit  : 0/0
  1103 ;;		Unchanged: 0/0
  1104 ;; Data sizes:     COMMON   BANK0   BANK1   BANK3   BANK2
  1105 ;;      Params:         0       4       0       0       0
  1106 ;;      Locals:         0       2       0       0       0
  1107 ;;      Temps:          0       5       0       0       0
  1108 ;;      Totals:         0      11       0       0       0
  1109 ;;Total ram usage:       11 bytes
  1110 ;; Hardware stack levels used:    1
  1111 ;; This function calls:
  1112 ;;		Nothing
  1113 ;; This function is called by:
  1114 ;;		_Pwm1_Duty
  1115 ;; This function uses a non-reentrant model
  1116 ;;
  1117                           
  1118                           
  1119                           ;psect for function ___fltol
  1120  0042                     ___fltol:	
  1121  0042                     l1186:	
  1122                           ;incstack = 0
  1123                           ; Regs used in ___fltol: [wreg+status,2+status,0]
  1124                           
  1125  0042  1003               	clrc
  1126  0043  1283               	bcf	3,5	;RP0=0, select bank0
  1127  0044  1303               	bcf	3,6	;RP1=0, select bank0
  1128  0045  0D66               	rlf	___fltol@f1+2,w
  1129  0046  0D67               	rlf	___fltol@f1+3,w
  1130  0047  00E8               	movwf	??___fltol
  1131  0048  0868               	movf	??___fltol,w
  1132  0049  00EE               	movwf	___fltol@exp1
  1133  004A  086E               	movf	___fltol@exp1,w
  1134  004B  1D03               	btfss	3,2
  1135  004C  284E               	goto	u1381
  1136  004D  284F               	goto	u1380
  1137  004E                     u1381:	
  1138  004E  2858               	goto	l1192
  1139  004F                     u1380:	
  1140  004F                     l1188:	
  1141  004F  3000               	movlw	0
  1142  0050  00E7               	movwf	?___fltol+3
  1143  0051  3000               	movlw	0
  1144  0052  00E6               	movwf	?___fltol+2
  1145  0053  3000               	movlw	0
  1146  0054  00E5               	movwf	?___fltol+1
  1147  0055  3000               	movlw	0
  1148  0056  00E4               	movwf	?___fltol
  1149  0057  28BD               	goto	l322
  1150  0058                     l1192:	
  1151  0058  0864               	movf	___fltol@f1,w
  1152  0059  00E8               	movwf	??___fltol
  1153  005A  0865               	movf	___fltol@f1+1,w
  1154  005B  00E9               	movwf	??___fltol+1
  1155  005C  0866               	movf	___fltol@f1+2,w
  1156  005D  00EA               	movwf	??___fltol+2
  1157  005E  0867               	movf	___fltol@f1+3,w
  1158  005F  00EB               	movwf	??___fltol+3
  1159  0060  301F               	movlw	31
  1160  0061                     u1395:	
  1161  0061  1003               	clrc
  1162  0062  0CEB               	rrf	??___fltol+3,f
  1163  0063  0CEA               	rrf	??___fltol+2,f
  1164  0064  0CE9               	rrf	??___fltol+1,f
  1165  0065  0CE8               	rrf	??___fltol,f
  1166  0066                     u1390:	
  1167  0066  3EFF               	addlw	-1
  1168  0067  1D03               	skipz
  1169  0068  2861               	goto	u1395
  1170  0069  0868               	movf	??___fltol,w
  1171  006A  00EC               	movwf	??___fltol+4
  1172  006B  086C               	movf	??___fltol+4,w
  1173  006C  00ED               	movwf	___fltol@sign1
  1174  006D                     l1194:	
  1175  006D  17E6               	bsf	___fltol@f1+2,7
  1176  006E                     l1196:	
  1177  006E  30FF               	movlw	255
  1178  006F  05E4               	andwf	___fltol@f1,f
  1179  0070  30FF               	movlw	255
  1180  0071  05E5               	andwf	___fltol@f1+1,f
  1181  0072  30FF               	movlw	255
  1182  0073  05E6               	andwf	___fltol@f1+2,f
  1183  0074  3000               	movlw	0
  1184  0075  05E7               	andwf	___fltol@f1+3,f
  1185  0076                     l1198:	
  1186  0076  3096               	movlw	150
  1187  0077  02EE               	subwf	___fltol@exp1,f
  1188  0078                     l1200:	
  1189  0078  1FEE               	btfss	___fltol@exp1,7
  1190  0079  287B               	goto	u1401
  1191  007A  287C               	goto	u1400
  1192  007B                     u1401:	
  1193  007B  2896               	goto	l1210
  1194  007C                     u1400:	
  1195  007C                     l1202:	
  1196  007C  086E               	movf	___fltol@exp1,w
  1197  007D  3A80               	xorlw	128
  1198  007E  3E97               	addlw	151
  1199  007F  1803               	skipnc
  1200  0080  2882               	goto	u1411
  1201  0081  2883               	goto	u1410
  1202  0082                     u1411:	
  1203  0082  2884               	goto	l1208
  1204  0083                     u1410:	
  1205  0083  284F               	goto	l1188
  1206  0084                     l1208:	
  1207  0084  3001               	movlw	1
  1208  0085                     u1425:	
  1209  0085  1003               	clrc
  1210  0086  0CE7               	rrf	___fltol@f1+3,f
  1211  0087  0CE6               	rrf	___fltol@f1+2,f
  1212  0088  0CE5               	rrf	___fltol@f1+1,f
  1213  0089  0CE4               	rrf	___fltol@f1,f
  1214  008A  3EFF               	addlw	-1
  1215  008B  1D03               	skipz
  1216  008C  2885               	goto	u1425
  1217  008D  3001               	movlw	1
  1218  008E  00E8               	movwf	??___fltol
  1219  008F  0868               	movf	??___fltol,w
  1220  0090  07EE               	addwf	___fltol@exp1,f
  1221  0091  1D03               	btfss	3,2
  1222  0092  2894               	goto	u1431
  1223  0093  2895               	goto	u1430
  1224  0094                     u1431:	
  1225  0094  2884               	goto	l1208
  1226  0095                     u1430:	
  1227  0095  28AD               	goto	l1218
  1228  0096                     l1210:	
  1229  0096  3020               	movlw	32
  1230  0097  026E               	subwf	___fltol@exp1,w
  1231  0098  1C03               	skipc
  1232  0099  289B               	goto	u1441
  1233  009A  289C               	goto	u1440
  1234  009B                     u1441:	
  1235  009B  28A8               	goto	l329
  1236  009C                     u1440:	
  1237  009C  284F               	goto	l1188
  1238  009D                     l1216:	
  1239  009D  3001               	movlw	1
  1240  009E  00E8               	movwf	??___fltol
  1241  009F                     u1455:	
  1242  009F  1003               	clrc
  1243  00A0  0DE4               	rlf	___fltol@f1,f
  1244  00A1  0DE5               	rlf	___fltol@f1+1,f
  1245  00A2  0DE6               	rlf	___fltol@f1+2,f
  1246  00A3  0DE7               	rlf	___fltol@f1+3,f
  1247  00A4  0BE8               	decfsz	??___fltol,f
  1248  00A5  289F               	goto	u1455
  1249  00A6  3001               	movlw	1
  1250  00A7  02EE               	subwf	___fltol@exp1,f
  1251  00A8                     l329:	
  1252  00A8  086E               	movf	___fltol@exp1,w
  1253  00A9  1D03               	btfss	3,2
  1254  00AA  28AC               	goto	u1461
  1255  00AB  28AD               	goto	u1460
  1256  00AC                     u1461:	
  1257  00AC  289D               	goto	l1216
  1258  00AD                     u1460:	
  1259  00AD                     l1218:	
  1260  00AD  086D               	movf	___fltol@sign1,w
  1261  00AE  1903               	btfsc	3,2
  1262  00AF  28B1               	goto	u1471
  1263  00B0  28B2               	goto	u1470
  1264  00B1                     u1471:	
  1265  00B1  28BD               	goto	l332
  1266  00B2                     u1470:	
  1267  00B2                     l1220:	
  1268  00B2  09E4               	comf	___fltol@f1,f
  1269  00B3  09E5               	comf	___fltol@f1+1,f
  1270  00B4  09E6               	comf	___fltol@f1+2,f
  1271  00B5  09E7               	comf	___fltol@f1+3,f
  1272  00B6  0AE4               	incf	___fltol@f1,f
  1273  00B7  1903               	skipnz
  1274  00B8  0AE5               	incf	___fltol@f1+1,f
  1275  00B9  1903               	skipnz
  1276  00BA  0AE6               	incf	___fltol@f1+2,f
  1277  00BB  1903               	skipnz
  1278  00BC  0AE7               	incf	___fltol@f1+3,f
  1279  00BD                     l332:	
  1280  00BD                     l322:	
  1281  00BD  0008               	return
  1282  00BE                     __end_of___fltol:	
  1283                           
  1284                           	psect	text5
  1285  0481                     __ptext5:	
  1286 ;; *************** function ___flmul *****************
  1287 ;; Defined at:
  1288 ;;		line 8 in file "C:\Program Files (x86)\Microchip\xc8\v2.10\pic\sources\c90\common\sprcmul.c"
  1289 ;; Parameters:    Size  Location     Type
  1290 ;;  b               4   42[BANK0 ] long 
  1291 ;;  a               4   46[BANK0 ] long 
  1292 ;; Auto vars:     Size  Location     Type
  1293 ;;  prod            4   62[BANK0 ] struct .
  1294 ;;  grs             4   56[BANK0 ] unsigned long 
  1295 ;;  temp            2   66[BANK0 ] struct .
  1296 ;;  bexp            1   61[BANK0 ] unsigned char 
  1297 ;;  aexp            1   60[BANK0 ] unsigned char 
  1298 ;;  sign            1   55[BANK0 ] unsigned char 
  1299 ;; Return value:  Size  Location     Type
  1300 ;;                  4   42[BANK0 ] unsigned char 
  1301 ;; Registers used:
  1302 ;;		wreg, status,2, status,0, btemp+1, pclath, cstack
  1303 ;; Tracked objects:
  1304 ;;		On entry : 0/0
  1305 ;;		On exit  : 0/0
  1306 ;;		Unchanged: 0/0
  1307 ;; Data sizes:     COMMON   BANK0   BANK1   BANK3   BANK2
  1308 ;;      Params:         0       8       0       0       0
  1309 ;;      Locals:         0      13       0       0       0
  1310 ;;      Temps:          0       5       0       0       0
  1311 ;;      Totals:         0      26       0       0       0
  1312 ;;Total ram usage:       26 bytes
  1313 ;; Hardware stack levels used:    1
  1314 ;; Hardware stack levels required when called:    1
  1315 ;; This function calls:
  1316 ;;		__Umul8_16
  1317 ;; This function is called by:
  1318 ;;		_Pwm1_Duty
  1319 ;; This function uses a non-reentrant model
  1320 ;;
  1321                           
  1322                           
  1323                           ;psect for function ___flmul
  1324  0481                     ___flmul:	
  1325  0481                     l1364:	
  1326                           ;incstack = 0
  1327                           ; Regs used in ___flmul: [wreg+status,2+status,0+btemp+1+pclath+cstack]
  1328                           
  1329  0481  1283               	bcf	3,5	;RP0=0, select bank0
  1330  0482  1303               	bcf	3,6	;RP1=0, select bank0
  1331  0483  084D               	movf	___flmul@b+3,w
  1332  0484  3980               	andlw	128
  1333  0485  00D2               	movwf	??___flmul
  1334  0486  0852               	movf	??___flmul,w
  1335  0487  00D7               	movwf	___flmul@sign
  1336  0488                     l1366:	
  1337  0488  084D               	movf	___flmul@b+3,w
  1338  0489  00D2               	movwf	??___flmul
  1339  048A  0752               	addwf	??___flmul,w
  1340  048B  00D3               	movwf	??___flmul+1
  1341  048C  0853               	movf	??___flmul+1,w
  1342  048D  00DD               	movwf	___flmul@bexp
  1343  048E                     l1368:	
  1344  048E  1FCC               	btfss	___flmul@b+2,7
  1345  048F  2C91               	goto	u1771
  1346  0490  2C92               	goto	u1770
  1347  0491                     u1771:	
  1348  0491  2C93               	goto	l1372
  1349  0492                     u1770:	
  1350  0492                     l1370:	
  1351  0492  145D               	bsf	___flmul@bexp,0
  1352  0493                     l1372:	
  1353  0493  085D               	movf	___flmul@bexp,w
  1354  0494  1903               	btfsc	3,2
  1355  0495  2C97               	goto	u1781
  1356  0496  2C98               	goto	u1780
  1357  0497                     u1781:	
  1358  0497  2CA7               	goto	l1380
  1359  0498                     u1780:	
  1360  0498                     l1374:	
  1361  0498  0A5D               	incf	___flmul@bexp,w
  1362  0499  1D03               	btfss	3,2
  1363  049A  2C9C               	goto	u1791
  1364  049B  2C9D               	goto	u1790
  1365  049C                     u1791:	
  1366  049C  2CA5               	goto	l1378
  1367  049D                     u1790:	
  1368  049D                     l1376:	
  1369  049D  3000               	movlw	0
  1370  049E  00CD               	movwf	___flmul@b+3
  1371  049F  3000               	movlw	0
  1372  04A0  00CC               	movwf	___flmul@b+2
  1373  04A1  3000               	movlw	0
  1374  04A2  00CB               	movwf	___flmul@b+1
  1375  04A3  3000               	movlw	0
  1376  04A4  00CA               	movwf	___flmul@b
  1377  04A5                     l1378:	
  1378  04A5  17CC               	bsf	___flmul@b+2,7
  1379  04A6  2CAF               	goto	l1382
  1380  04A7                     l1380:	
  1381  04A7  3000               	movlw	0
  1382  04A8  00CD               	movwf	___flmul@b+3
  1383  04A9  3000               	movlw	0
  1384  04AA  00CC               	movwf	___flmul@b+2
  1385  04AB  3000               	movlw	0
  1386  04AC  00CB               	movwf	___flmul@b+1
  1387  04AD  3000               	movlw	0
  1388  04AE  00CA               	movwf	___flmul@b
  1389  04AF                     l1382:	
  1390  04AF  0851               	movf	___flmul@a+3,w
  1391  04B0  3980               	andlw	128
  1392  04B1  00D2               	movwf	??___flmul
  1393  04B2  0852               	movf	??___flmul,w
  1394  04B3  06D7               	xorwf	___flmul@sign,f
  1395  04B4                     l1384:	
  1396  04B4  0851               	movf	___flmul@a+3,w
  1397  04B5  00D2               	movwf	??___flmul
  1398  04B6  0752               	addwf	??___flmul,w
  1399  04B7  00D3               	movwf	??___flmul+1
  1400  04B8  0853               	movf	??___flmul+1,w
  1401  04B9  00DC               	movwf	___flmul@aexp
  1402  04BA                     l1386:	
  1403  04BA  1FD0               	btfss	___flmul@a+2,7
  1404  04BB  2CBD               	goto	u1801
  1405  04BC  2CBE               	goto	u1800
  1406  04BD                     u1801:	
  1407  04BD  2CBF               	goto	l1390
  1408  04BE                     u1800:	
  1409  04BE                     l1388:	
  1410  04BE  145C               	bsf	___flmul@aexp,0
  1411  04BF                     l1390:	
  1412  04BF  085C               	movf	___flmul@aexp,w
  1413  04C0  1903               	btfsc	3,2
  1414  04C1  2CC3               	goto	u1811
  1415  04C2  2CC4               	goto	u1810
  1416  04C3                     u1811:	
  1417  04C3  2CD3               	goto	l1398
  1418  04C4                     u1810:	
  1419  04C4                     l1392:	
  1420  04C4  0A5C               	incf	___flmul@aexp,w
  1421  04C5  1D03               	btfss	3,2
  1422  04C6  2CC8               	goto	u1821
  1423  04C7  2CC9               	goto	u1820
  1424  04C8                     u1821:	
  1425  04C8  2CD1               	goto	l1396
  1426  04C9                     u1820:	
  1427  04C9                     l1394:	
  1428  04C9  3000               	movlw	0
  1429  04CA  00D1               	movwf	___flmul@a+3
  1430  04CB  3000               	movlw	0
  1431  04CC  00D0               	movwf	___flmul@a+2
  1432  04CD  3000               	movlw	0
  1433  04CE  00CF               	movwf	___flmul@a+1
  1434  04CF  3000               	movlw	0
  1435  04D0  00CE               	movwf	___flmul@a
  1436  04D1                     l1396:	
  1437  04D1  17D0               	bsf	___flmul@a+2,7
  1438  04D2  2CDB               	goto	l1400
  1439  04D3                     l1398:	
  1440  04D3  3000               	movlw	0
  1441  04D4  00D1               	movwf	___flmul@a+3
  1442  04D5  3000               	movlw	0
  1443  04D6  00D0               	movwf	___flmul@a+2
  1444  04D7  3000               	movlw	0
  1445  04D8  00CF               	movwf	___flmul@a+1
  1446  04D9  3000               	movlw	0
  1447  04DA  00CE               	movwf	___flmul@a
  1448  04DB                     l1400:	
  1449  04DB  085C               	movf	___flmul@aexp,w
  1450  04DC  1903               	btfsc	3,2
  1451  04DD  2CDF               	goto	u1831
  1452  04DE  2CE0               	goto	u1830
  1453  04DF                     u1831:	
  1454  04DF  2CE5               	goto	l1404
  1455  04E0                     u1830:	
  1456  04E0                     l1402:	
  1457  04E0  085D               	movf	___flmul@bexp,w
  1458  04E1  1D03               	btfss	3,2
  1459  04E2  2CE4               	goto	u1841
  1460  04E3  2CE5               	goto	u1840
  1461  04E4                     u1841:	
  1462  04E4  2CEE               	goto	l1408
  1463  04E5                     u1840:	
  1464  04E5                     l1404:	
  1465  04E5  3000               	movlw	0
  1466  04E6  00CD               	movwf	?___flmul+3
  1467  04E7  3000               	movlw	0
  1468  04E8  00CC               	movwf	?___flmul+2
  1469  04E9  3000               	movlw	0
  1470  04EA  00CB               	movwf	?___flmul+1
  1471  04EB  3000               	movlw	0
  1472  04EC  00CA               	movwf	?___flmul
  1473  04ED  2FE1               	goto	l525
  1474  04EE                     l1408:	
  1475  04EE  084A               	movf	___flmul@b,w
  1476  04EF  00D2               	movwf	??___flmul
  1477  04F0  0852               	movf	??___flmul,w
  1478  04F1  00F0               	movwf	__Umul8_16@multiplicand
  1479  04F2  0850               	movf	___flmul@a+2,w
  1480  04F3  120A  118A  201B  120A  118A  	fcall	__Umul8_16
  1481  04F8  0871               	movf	?__Umul8_16+1,w
  1482  04F9  1283               	bcf	3,5	;RP0=0, select bank0
  1483  04FA  1303               	bcf	3,6	;RP1=0, select bank0
  1484  04FB  00E3               	movwf	___flmul@temp+1
  1485  04FC  0870               	movf	?__Umul8_16,w
  1486  04FD  00E2               	movwf	___flmul@temp
  1487  04FE                     l1410:	
  1488  04FE  0862               	movf	___flmul@temp,w
  1489  04FF  00D2               	movwf	??___flmul
  1490  0500  01D3               	clrf	??___flmul+1
  1491  0501  01D4               	clrf	??___flmul+2
  1492  0502  01D5               	clrf	??___flmul+3
  1493  0503  0855               	movf	??___flmul+3,w
  1494  0504  00DB               	movwf	___flmul@grs+3
  1495  0505  0854               	movf	??___flmul+2,w
  1496  0506  00DA               	movwf	___flmul@grs+2
  1497  0507  0853               	movf	??___flmul+1,w
  1498  0508  00D9               	movwf	___flmul@grs+1
  1499  0509  0852               	movf	??___flmul,w
  1500  050A  00D8               	movwf	___flmul@grs
  1501  050B                     l1412:	
  1502  050B  0863               	movf	___flmul@temp+1,w
  1503  050C  00D2               	movwf	??___flmul
  1504  050D  01D3               	clrf	??___flmul+1
  1505  050E  01D4               	clrf	??___flmul+2
  1506  050F  01D5               	clrf	??___flmul+3
  1507  0510  0855               	movf	??___flmul+3,w
  1508  0511  00E1               	movwf	___flmul@prod+3
  1509  0512  0854               	movf	??___flmul+2,w
  1510  0513  00E0               	movwf	___flmul@prod+2
  1511  0514  0853               	movf	??___flmul+1,w
  1512  0515  00DF               	movwf	___flmul@prod+1
  1513  0516  0852               	movf	??___flmul,w
  1514  0517  00DE               	movwf	___flmul@prod
  1515  0518  084B               	movf	___flmul@b+1,w
  1516  0519  00D2               	movwf	??___flmul
  1517  051A  0852               	movf	??___flmul,w
  1518  051B  00F0               	movwf	__Umul8_16@multiplicand
  1519  051C  084F               	movf	___flmul@a+1,w
  1520  051D  120A  118A  201B  120A  118A  	fcall	__Umul8_16
  1521  0522  0871               	movf	?__Umul8_16+1,w
  1522  0523  1283               	bcf	3,5	;RP0=0, select bank0
  1523  0524  1303               	bcf	3,6	;RP1=0, select bank0
  1524  0525  00E3               	movwf	___flmul@temp+1
  1525  0526  0870               	movf	?__Umul8_16,w
  1526  0527  00E2               	movwf	___flmul@temp
  1527  0528                     l1414:	
  1528  0528  0862               	movf	___flmul@temp,w
  1529  0529  00D2               	movwf	??___flmul
  1530  052A  01D3               	clrf	??___flmul+1
  1531  052B  01D4               	clrf	??___flmul+2
  1532  052C  01D5               	clrf	??___flmul+3
  1533  052D  0852               	movf	??___flmul,w
  1534  052E  07D8               	addwf	___flmul@grs,f
  1535  052F  0853               	movf	??___flmul+1,w
  1536  0530  1103               	clrz
  1537  0531  1803               	skipnc
  1538  0532  3E01               	addlw	1
  1539  0533  1903               	skipnz
  1540  0534  2D36               	goto	u1851
  1541  0535  07D9               	addwf	___flmul@grs+1,f
  1542  0536                     u1851:	
  1543  0536  0854               	movf	??___flmul+2,w
  1544  0537  1103               	clrz
  1545  0538  1803               	skipnc
  1546  0539  3E01               	addlw	1
  1547  053A  1903               	skipnz
  1548  053B  2D3D               	goto	u1852
  1549  053C  07DA               	addwf	___flmul@grs+2,f
  1550  053D                     u1852:	
  1551  053D  0855               	movf	??___flmul+3,w
  1552  053E  1103               	clrz
  1553  053F  1803               	skipnc
  1554  0540  3E01               	addlw	1
  1555  0541  1903               	skipnz
  1556  0542  2D44               	goto	u1853
  1557  0543  07DB               	addwf	___flmul@grs+3,f
  1558  0544                     u1853:	
  1559  0544                     l1416:	
  1560  0544  0863               	movf	___flmul@temp+1,w
  1561  0545  00D2               	movwf	??___flmul
  1562  0546  01D3               	clrf	??___flmul+1
  1563  0547  01D4               	clrf	??___flmul+2
  1564  0548  01D5               	clrf	??___flmul+3
  1565  0549  0852               	movf	??___flmul,w
  1566  054A  07DE               	addwf	___flmul@prod,f
  1567  054B  0853               	movf	??___flmul+1,w
  1568  054C  1103               	clrz
  1569  054D  1803               	skipnc
  1570  054E  3E01               	addlw	1
  1571  054F  1903               	skipnz
  1572  0550  2D52               	goto	u1861
  1573  0551  07DF               	addwf	___flmul@prod+1,f
  1574  0552                     u1861:	
  1575  0552  0854               	movf	??___flmul+2,w
  1576  0553  1103               	clrz
  1577  0554  1803               	skipnc
  1578  0555  3E01               	addlw	1
  1579  0556  1903               	skipnz
  1580  0557  2D59               	goto	u1862
  1581  0558  07E0               	addwf	___flmul@prod+2,f
  1582  0559                     u1862:	
  1583  0559  0855               	movf	??___flmul+3,w
  1584  055A  1103               	clrz
  1585  055B  1803               	skipnc
  1586  055C  3E01               	addlw	1
  1587  055D  1903               	skipnz
  1588  055E  2D60               	goto	u1863
  1589  055F  07E1               	addwf	___flmul@prod+3,f
  1590  0560                     u1863:	
  1591  0560  084C               	movf	___flmul@b+2,w
  1592  0561  00D2               	movwf	??___flmul
  1593  0562  0852               	movf	??___flmul,w
  1594  0563  00F0               	movwf	__Umul8_16@multiplicand
  1595  0564  084E               	movf	___flmul@a,w
  1596  0565  120A  118A  201B  120A  118A  	fcall	__Umul8_16
  1597  056A  0871               	movf	?__Umul8_16+1,w
  1598  056B  1283               	bcf	3,5	;RP0=0, select bank0
  1599  056C  1303               	bcf	3,6	;RP1=0, select bank0
  1600  056D  00E3               	movwf	___flmul@temp+1
  1601  056E  0870               	movf	?__Umul8_16,w
  1602  056F  00E2               	movwf	___flmul@temp
  1603  0570                     l1418:	
  1604  0570  0862               	movf	___flmul@temp,w
  1605  0571  00D2               	movwf	??___flmul
  1606  0572  01D3               	clrf	??___flmul+1
  1607  0573  01D4               	clrf	??___flmul+2
  1608  0574  01D5               	clrf	??___flmul+3
  1609  0575  0852               	movf	??___flmul,w
  1610  0576  07D8               	addwf	___flmul@grs,f
  1611  0577  0853               	movf	??___flmul+1,w
  1612  0578  1103               	clrz
  1613  0579  1803               	skipnc
  1614  057A  3E01               	addlw	1
  1615  057B  1903               	skipnz
  1616  057C  2D7E               	goto	u1871
  1617  057D  07D9               	addwf	___flmul@grs+1,f
  1618  057E                     u1871:	
  1619  057E  0854               	movf	??___flmul+2,w
  1620  057F  1103               	clrz
  1621  0580  1803               	skipnc
  1622  0581  3E01               	addlw	1
  1623  0582  1903               	skipnz
  1624  0583  2D85               	goto	u1872
  1625  0584  07DA               	addwf	___flmul@grs+2,f
  1626  0585                     u1872:	
  1627  0585  0855               	movf	??___flmul+3,w
  1628  0586  1103               	clrz
  1629  0587  1803               	skipnc
  1630  0588  3E01               	addlw	1
  1631  0589  1903               	skipnz
  1632  058A  2D8C               	goto	u1873
  1633  058B  07DB               	addwf	___flmul@grs+3,f
  1634  058C                     u1873:	
  1635  058C                     l1420:	
  1636  058C  0863               	movf	___flmul@temp+1,w
  1637  058D  00D2               	movwf	??___flmul
  1638  058E  01D3               	clrf	??___flmul+1
  1639  058F  01D4               	clrf	??___flmul+2
  1640  0590  01D5               	clrf	??___flmul+3
  1641  0591  0852               	movf	??___flmul,w
  1642  0592  07DE               	addwf	___flmul@prod,f
  1643  0593  0853               	movf	??___flmul+1,w
  1644  0594  1103               	clrz
  1645  0595  1803               	skipnc
  1646  0596  3E01               	addlw	1
  1647  0597  1903               	skipnz
  1648  0598  2D9A               	goto	u1881
  1649  0599  07DF               	addwf	___flmul@prod+1,f
  1650  059A                     u1881:	
  1651  059A  0854               	movf	??___flmul+2,w
  1652  059B  1103               	clrz
  1653  059C  1803               	skipnc
  1654  059D  3E01               	addlw	1
  1655  059E  1903               	skipnz
  1656  059F  2DA1               	goto	u1882
  1657  05A0  07E0               	addwf	___flmul@prod+2,f
  1658  05A1                     u1882:	
  1659  05A1  0855               	movf	??___flmul+3,w
  1660  05A2  1103               	clrz
  1661  05A3  1803               	skipnc
  1662  05A4  3E01               	addlw	1
  1663  05A5  1903               	skipnz
  1664  05A6  2DA8               	goto	u1883
  1665  05A7  07E1               	addwf	___flmul@prod+3,f
  1666  05A8                     u1883:	
  1667  05A8                     l1422:	
  1668  05A8  3008               	movlw	8
  1669  05A9  00D2               	movwf	??___flmul
  1670  05AA                     u1895:	
  1671  05AA  1003               	clrc
  1672  05AB  0DD8               	rlf	___flmul@grs,f
  1673  05AC  0DD9               	rlf	___flmul@grs+1,f
  1674  05AD  0DDA               	rlf	___flmul@grs+2,f
  1675  05AE  0DDB               	rlf	___flmul@grs+3,f
  1676  05AF  0BD2               	decfsz	??___flmul,f
  1677  05B0  2DAA               	goto	u1895
  1678  05B1                     l1424:	
  1679  05B1  084B               	movf	___flmul@b+1,w
  1680  05B2  00D2               	movwf	??___flmul
  1681  05B3  0852               	movf	??___flmul,w
  1682  05B4  00F0               	movwf	__Umul8_16@multiplicand
  1683  05B5  084E               	movf	___flmul@a,w
  1684  05B6  120A  118A  201B  120A  118A  	fcall	__Umul8_16
  1685  05BB  0871               	movf	?__Umul8_16+1,w
  1686  05BC  1283               	bcf	3,5	;RP0=0, select bank0
  1687  05BD  1303               	bcf	3,6	;RP1=0, select bank0
  1688  05BE  00E3               	movwf	___flmul@temp+1
  1689  05BF  0870               	movf	?__Umul8_16,w
  1690  05C0  00E2               	movwf	___flmul@temp
  1691  05C1                     l1426:	
  1692  05C1  0862               	movf	___flmul@temp,w
  1693  05C2  00D2               	movwf	??___flmul
  1694  05C3  0863               	movf	___flmul@temp+1,w
  1695  05C4  00D3               	movwf	??___flmul+1
  1696  05C5  01D4               	clrf	??___flmul+2
  1697  05C6  01D5               	clrf	??___flmul+3
  1698  05C7  0852               	movf	??___flmul,w
  1699  05C8  07D8               	addwf	___flmul@grs,f
  1700  05C9  0853               	movf	??___flmul+1,w
  1701  05CA  1103               	clrz
  1702  05CB  1803               	skipnc
  1703  05CC  3E01               	addlw	1
  1704  05CD  1903               	skipnz
  1705  05CE  2DD0               	goto	u1901
  1706  05CF  07D9               	addwf	___flmul@grs+1,f
  1707  05D0                     u1901:	
  1708  05D0  0854               	movf	??___flmul+2,w
  1709  05D1  1103               	clrz
  1710  05D2  1803               	skipnc
  1711  05D3  3E01               	addlw	1
  1712  05D4  1903               	skipnz
  1713  05D5  2DD7               	goto	u1902
  1714  05D6  07DA               	addwf	___flmul@grs+2,f
  1715  05D7                     u1902:	
  1716  05D7  0855               	movf	??___flmul+3,w
  1717  05D8  1103               	clrz
  1718  05D9  1803               	skipnc
  1719  05DA  3E01               	addlw	1
  1720  05DB  1903               	skipnz
  1721  05DC  2DDE               	goto	u1903
  1722  05DD  07DB               	addwf	___flmul@grs+3,f
  1723  05DE                     u1903:	
  1724  05DE                     l1428:	
  1725  05DE  084A               	movf	___flmul@b,w
  1726  05DF  00D2               	movwf	??___flmul
  1727  05E0  0852               	movf	??___flmul,w
  1728  05E1  00F0               	movwf	__Umul8_16@multiplicand
  1729  05E2  084F               	movf	___flmul@a+1,w
  1730  05E3  120A  118A  201B  120A  118A  	fcall	__Umul8_16
  1731  05E8  0871               	movf	?__Umul8_16+1,w
  1732  05E9  1283               	bcf	3,5	;RP0=0, select bank0
  1733  05EA  1303               	bcf	3,6	;RP1=0, select bank0
  1734  05EB  00E3               	movwf	___flmul@temp+1
  1735  05EC  0870               	movf	?__Umul8_16,w
  1736  05ED  00E2               	movwf	___flmul@temp
  1737  05EE                     l1430:	
  1738  05EE  0862               	movf	___flmul@temp,w
  1739  05EF  00D2               	movwf	??___flmul
  1740  05F0  0863               	movf	___flmul@temp+1,w
  1741  05F1  00D3               	movwf	??___flmul+1
  1742  05F2  01D4               	clrf	??___flmul+2
  1743  05F3  01D5               	clrf	??___flmul+3
  1744  05F4  0852               	movf	??___flmul,w
  1745  05F5  07D8               	addwf	___flmul@grs,f
  1746  05F6  0853               	movf	??___flmul+1,w
  1747  05F7  1103               	clrz
  1748  05F8  1803               	skipnc
  1749  05F9  3E01               	addlw	1
  1750  05FA  1903               	skipnz
  1751  05FB  2DFD               	goto	u1911
  1752  05FC  07D9               	addwf	___flmul@grs+1,f
  1753  05FD                     u1911:	
  1754  05FD  0854               	movf	??___flmul+2,w
  1755  05FE  1103               	clrz
  1756  05FF  1803               	skipnc
  1757  0600  3E01               	addlw	1
  1758  0601  1903               	skipnz
  1759  0602  2E04               	goto	u1912
  1760  0603  07DA               	addwf	___flmul@grs+2,f
  1761  0604                     u1912:	
  1762  0604  0855               	movf	??___flmul+3,w
  1763  0605  1103               	clrz
  1764  0606  1803               	skipnc
  1765  0607  3E01               	addlw	1
  1766  0608  1903               	skipnz
  1767  0609  2E0B               	goto	u1913
  1768  060A  07DB               	addwf	___flmul@grs+3,f
  1769  060B                     u1913:	
  1770  060B                     l1432:	
  1771  060B  3008               	movlw	8
  1772  060C  00D2               	movwf	??___flmul
  1773  060D                     u1925:	
  1774  060D  1003               	clrc
  1775  060E  0DD8               	rlf	___flmul@grs,f
  1776  060F  0DD9               	rlf	___flmul@grs+1,f
  1777  0610  0DDA               	rlf	___flmul@grs+2,f
  1778  0611  0DDB               	rlf	___flmul@grs+3,f
  1779  0612  0BD2               	decfsz	??___flmul,f
  1780  0613  2E0D               	goto	u1925
  1781  0614  084A               	movf	___flmul@b,w
  1782  0615  00D2               	movwf	??___flmul
  1783  0616  0852               	movf	??___flmul,w
  1784  0617  00F0               	movwf	__Umul8_16@multiplicand
  1785  0618  084E               	movf	___flmul@a,w
  1786  0619  120A  118A  201B  120A  118A  	fcall	__Umul8_16
  1787  061E  0871               	movf	?__Umul8_16+1,w
  1788  061F  1283               	bcf	3,5	;RP0=0, select bank0
  1789  0620  1303               	bcf	3,6	;RP1=0, select bank0
  1790  0621  00E3               	movwf	___flmul@temp+1
  1791  0622  0870               	movf	?__Umul8_16,w
  1792  0623  00E2               	movwf	___flmul@temp
  1793  0624                     l1434:	
  1794  0624  0862               	movf	___flmul@temp,w
  1795  0625  00D2               	movwf	??___flmul
  1796  0626  0863               	movf	___flmul@temp+1,w
  1797  0627  00D3               	movwf	??___flmul+1
  1798  0628  01D4               	clrf	??___flmul+2
  1799  0629  01D5               	clrf	??___flmul+3
  1800  062A  0852               	movf	??___flmul,w
  1801  062B  07D8               	addwf	___flmul@grs,f
  1802  062C  0853               	movf	??___flmul+1,w
  1803  062D  1103               	clrz
  1804  062E  1803               	skipnc
  1805  062F  3E01               	addlw	1
  1806  0630  1903               	skipnz
  1807  0631  2E33               	goto	u1931
  1808  0632  07D9               	addwf	___flmul@grs+1,f
  1809  0633                     u1931:	
  1810  0633  0854               	movf	??___flmul+2,w
  1811  0634  1103               	clrz
  1812  0635  1803               	skipnc
  1813  0636  3E01               	addlw	1
  1814  0637  1903               	skipnz
  1815  0638  2E3A               	goto	u1932
  1816  0639  07DA               	addwf	___flmul@grs+2,f
  1817  063A                     u1932:	
  1818  063A  0855               	movf	??___flmul+3,w
  1819  063B  1103               	clrz
  1820  063C  1803               	skipnc
  1821  063D  3E01               	addlw	1
  1822  063E  1903               	skipnz
  1823  063F  2E41               	goto	u1933
  1824  0640  07DB               	addwf	___flmul@grs+3,f
  1825  0641                     u1933:	
  1826  0641                     l1436:	
  1827  0641  084B               	movf	___flmul@b+1,w
  1828  0642  00D2               	movwf	??___flmul
  1829  0643  0852               	movf	??___flmul,w
  1830  0644  00F0               	movwf	__Umul8_16@multiplicand
  1831  0645  0850               	movf	___flmul@a+2,w
  1832  0646  120A  118A  201B  120A  118A  	fcall	__Umul8_16
  1833  064B  0871               	movf	?__Umul8_16+1,w
  1834  064C  1283               	bcf	3,5	;RP0=0, select bank0
  1835  064D  1303               	bcf	3,6	;RP1=0, select bank0
  1836  064E  00E3               	movwf	___flmul@temp+1
  1837  064F  0870               	movf	?__Umul8_16,w
  1838  0650  00E2               	movwf	___flmul@temp
  1839  0651  0862               	movf	___flmul@temp,w
  1840  0652  00D2               	movwf	??___flmul
  1841  0653  0863               	movf	___flmul@temp+1,w
  1842  0654  00D3               	movwf	??___flmul+1
  1843  0655  01D4               	clrf	??___flmul+2
  1844  0656  01D5               	clrf	??___flmul+3
  1845  0657  0852               	movf	??___flmul,w
  1846  0658  07DE               	addwf	___flmul@prod,f
  1847  0659  0853               	movf	??___flmul+1,w
  1848  065A  1103               	clrz
  1849  065B  1803               	skipnc
  1850  065C  3E01               	addlw	1
  1851  065D  1903               	skipnz
  1852  065E  2E60               	goto	u1941
  1853  065F  07DF               	addwf	___flmul@prod+1,f
  1854  0660                     u1941:	
  1855  0660  0854               	movf	??___flmul+2,w
  1856  0661  1103               	clrz
  1857  0662  1803               	skipnc
  1858  0663  3E01               	addlw	1
  1859  0664  1903               	skipnz
  1860  0665  2E67               	goto	u1942
  1861  0666  07E0               	addwf	___flmul@prod+2,f
  1862  0667                     u1942:	
  1863  0667  0855               	movf	??___flmul+3,w
  1864  0668  1103               	clrz
  1865  0669  1803               	skipnc
  1866  066A  3E01               	addlw	1
  1867  066B  1903               	skipnz
  1868  066C  2E6E               	goto	u1943
  1869  066D  07E1               	addwf	___flmul@prod+3,f
  1870  066E                     u1943:	
  1871  066E                     l1438:	
  1872  066E  084C               	movf	___flmul@b+2,w
  1873  066F  00D2               	movwf	??___flmul
  1874  0670  0852               	movf	??___flmul,w
  1875  0671  00F0               	movwf	__Umul8_16@multiplicand
  1876  0672  084F               	movf	___flmul@a+1,w
  1877  0673  120A  118A  201B  120A  118A  	fcall	__Umul8_16
  1878  0678  0871               	movf	?__Umul8_16+1,w
  1879  0679  1283               	bcf	3,5	;RP0=0, select bank0
  1880  067A  1303               	bcf	3,6	;RP1=0, select bank0
  1881  067B  00E3               	movwf	___flmul@temp+1
  1882  067C  0870               	movf	?__Umul8_16,w
  1883  067D  00E2               	movwf	___flmul@temp
  1884  067E                     l1440:	
  1885  067E  0862               	movf	___flmul@temp,w
  1886  067F  00D2               	movwf	??___flmul
  1887  0680  0863               	movf	___flmul@temp+1,w
  1888  0681  00D3               	movwf	??___flmul+1
  1889  0682  01D4               	clrf	??___flmul+2
  1890  0683  01D5               	clrf	??___flmul+3
  1891  0684  0852               	movf	??___flmul,w
  1892  0685  07DE               	addwf	___flmul@prod,f
  1893  0686  0853               	movf	??___flmul+1,w
  1894  0687  1103               	clrz
  1895  0688  1803               	skipnc
  1896  0689  3E01               	addlw	1
  1897  068A  1903               	skipnz
  1898  068B  2E8D               	goto	u1951
  1899  068C  07DF               	addwf	___flmul@prod+1,f
  1900  068D                     u1951:	
  1901  068D  0854               	movf	??___flmul+2,w
  1902  068E  1103               	clrz
  1903  068F  1803               	skipnc
  1904  0690  3E01               	addlw	1
  1905  0691  1903               	skipnz
  1906  0692  2E94               	goto	u1952
  1907  0693  07E0               	addwf	___flmul@prod+2,f
  1908  0694                     u1952:	
  1909  0694  0855               	movf	??___flmul+3,w
  1910  0695  1103               	clrz
  1911  0696  1803               	skipnc
  1912  0697  3E01               	addlw	1
  1913  0698  1903               	skipnz
  1914  0699  2E9B               	goto	u1953
  1915  069A  07E1               	addwf	___flmul@prod+3,f
  1916  069B                     u1953:	
  1917  069B  084C               	movf	___flmul@b+2,w
  1918  069C  00D2               	movwf	??___flmul
  1919  069D  0852               	movf	??___flmul,w
  1920  069E  00F0               	movwf	__Umul8_16@multiplicand
  1921  069F  0850               	movf	___flmul@a+2,w
  1922  06A0  120A  118A  201B  120A  118A  	fcall	__Umul8_16
  1923  06A5  0871               	movf	?__Umul8_16+1,w
  1924  06A6  1283               	bcf	3,5	;RP0=0, select bank0
  1925  06A7  1303               	bcf	3,6	;RP1=0, select bank0
  1926  06A8  00E3               	movwf	___flmul@temp+1
  1927  06A9  0870               	movf	?__Umul8_16,w
  1928  06AA  00E2               	movwf	___flmul@temp
  1929  06AB                     l1442:	
  1930  06AB  0862               	movf	___flmul@temp,w
  1931  06AC  00D2               	movwf	??___flmul
  1932  06AD  0863               	movf	___flmul@temp+1,w
  1933  06AE  00D3               	movwf	??___flmul+1
  1934  06AF  01D4               	clrf	??___flmul+2
  1935  06B0  01D5               	clrf	??___flmul+3
  1936  06B1  3008               	movlw	8
  1937  06B2                     u1965:	
  1938  06B2  1003               	clrc
  1939  06B3  0DD2               	rlf	??___flmul,f
  1940  06B4  0DD3               	rlf	??___flmul+1,f
  1941  06B5  0DD4               	rlf	??___flmul+2,f
  1942  06B6  0DD5               	rlf	??___flmul+3,f
  1943  06B7                     u1960:	
  1944  06B7  3EFF               	addlw	-1
  1945  06B8  1D03               	skipz
  1946  06B9  2EB2               	goto	u1965
  1947  06BA  0852               	movf	??___flmul,w
  1948  06BB  07DE               	addwf	___flmul@prod,f
  1949  06BC  0853               	movf	??___flmul+1,w
  1950  06BD  1103               	clrz
  1951  06BE  1803               	skipnc
  1952  06BF  3E01               	addlw	1
  1953  06C0  1903               	skipnz
  1954  06C1  2EC3               	goto	u1971
  1955  06C2  07DF               	addwf	___flmul@prod+1,f
  1956  06C3                     u1971:	
  1957  06C3  0854               	movf	??___flmul+2,w
  1958  06C4  1103               	clrz
  1959  06C5  1803               	skipnc
  1960  06C6  3E01               	addlw	1
  1961  06C7  1903               	skipnz
  1962  06C8  2ECA               	goto	u1972
  1963  06C9  07E0               	addwf	___flmul@prod+2,f
  1964  06CA                     u1972:	
  1965  06CA  0855               	movf	??___flmul+3,w
  1966  06CB  1103               	clrz
  1967  06CC  1803               	skipnc
  1968  06CD  3E01               	addlw	1
  1969  06CE  1903               	skipnz
  1970  06CF  2ED1               	goto	u1973
  1971  06D0  07E1               	addwf	___flmul@prod+3,f
  1972  06D1                     u1973:	
  1973  06D1                     l1444:	
  1974  06D1  0858               	movf	___flmul@grs,w
  1975  06D2  00D2               	movwf	??___flmul
  1976  06D3  0859               	movf	___flmul@grs+1,w
  1977  06D4  00D3               	movwf	??___flmul+1
  1978  06D5  085A               	movf	___flmul@grs+2,w
  1979  06D6  00D4               	movwf	??___flmul+2
  1980  06D7  085B               	movf	___flmul@grs+3,w
  1981  06D8  00D5               	movwf	??___flmul+3
  1982  06D9  3018               	movlw	24
  1983  06DA                     u1985:	
  1984  06DA  1003               	clrc
  1985  06DB  0CD5               	rrf	??___flmul+3,f
  1986  06DC  0CD4               	rrf	??___flmul+2,f
  1987  06DD  0CD3               	rrf	??___flmul+1,f
  1988  06DE  0CD2               	rrf	??___flmul,f
  1989  06DF                     u1980:	
  1990  06DF  3EFF               	addlw	-1
  1991  06E0  1D03               	skipz
  1992  06E1  2EDA               	goto	u1985
  1993  06E2  0852               	movf	??___flmul,w
  1994  06E3  07DE               	addwf	___flmul@prod,f
  1995  06E4  0853               	movf	??___flmul+1,w
  1996  06E5  1103               	clrz
  1997  06E6  1803               	skipnc
  1998  06E7  3E01               	addlw	1
  1999  06E8  1903               	skipnz
  2000  06E9  2EEB               	goto	u1991
  2001  06EA  07DF               	addwf	___flmul@prod+1,f
  2002  06EB                     u1991:	
  2003  06EB  0854               	movf	??___flmul+2,w
  2004  06EC  1103               	clrz
  2005  06ED  1803               	skipnc
  2006  06EE  3E01               	addlw	1
  2007  06EF  1903               	skipnz
  2008  06F0  2EF2               	goto	u1992
  2009  06F1  07E0               	addwf	___flmul@prod+2,f
  2010  06F2                     u1992:	
  2011  06F2  0855               	movf	??___flmul+3,w
  2012  06F3  1103               	clrz
  2013  06F4  1803               	skipnc
  2014  06F5  3E01               	addlw	1
  2015  06F6  1903               	skipnz
  2016  06F7  2EF9               	goto	u1993
  2017  06F8  07E1               	addwf	___flmul@prod+3,f
  2018  06F9                     u1993:	
  2019  06F9                     l1446:	
  2020  06F9  3008               	movlw	8
  2021  06FA  00D2               	movwf	??___flmul
  2022  06FB                     u2005:	
  2023  06FB  1003               	clrc
  2024  06FC  0DD8               	rlf	___flmul@grs,f
  2025  06FD  0DD9               	rlf	___flmul@grs+1,f
  2026  06FE  0DDA               	rlf	___flmul@grs+2,f
  2027  06FF  0DDB               	rlf	___flmul@grs+3,f
  2028  0700  0BD2               	decfsz	??___flmul,f
  2029  0701  2EFB               	goto	u2005
  2030  0702                     l1448:	
  2031  0702  085D               	movf	___flmul@bexp,w
  2032  0703  075C               	addwf	___flmul@aexp,w
  2033  0704  00D2               	movwf	??___flmul
  2034  0705  01D3               	clrf	??___flmul+1
  2035  0706  0DD3               	rlf	??___flmul+1,f
  2036  0707  0852               	movf	??___flmul,w
  2037  0708  3E82               	addlw	130
  2038  0709  00E2               	movwf	___flmul@temp
  2039  070A  0853               	movf	??___flmul+1,w
  2040  070B  1803               	skipnc
  2041  070C  3E01               	addlw	1
  2042  070D  3EFF               	addlw	255
  2043  070E  00E3               	movwf	___flmul@temp+1
  2044  070F  2F2D               	goto	l1460
  2045  0710                     l1450:	
  2046  0710  3001               	movlw	1
  2047  0711  00D2               	movwf	??___flmul
  2048  0712                     u2015:	
  2049  0712  1003               	clrc
  2050  0713  0DDE               	rlf	___flmul@prod,f
  2051  0714  0DDF               	rlf	___flmul@prod+1,f
  2052  0715  0DE0               	rlf	___flmul@prod+2,f
  2053  0716  0DE1               	rlf	___flmul@prod+3,f
  2054  0717  0BD2               	decfsz	??___flmul,f
  2055  0718  2F12               	goto	u2015
  2056  0719                     l1452:	
  2057  0719  1FDB               	btfss	___flmul@grs+3,7
  2058  071A  2F1C               	goto	u2021
  2059  071B  2F1D               	goto	u2020
  2060  071C                     u2021:	
  2061  071C  2F1E               	goto	l1456
  2062  071D                     u2020:	
  2063  071D                     l1454:	
  2064  071D  145E               	bsf	___flmul@prod,0
  2065  071E                     l1456:	
  2066  071E  3001               	movlw	1
  2067  071F  00D2               	movwf	??___flmul
  2068  0720                     u2035:	
  2069  0720  1003               	clrc
  2070  0721  0DD8               	rlf	___flmul@grs,f
  2071  0722  0DD9               	rlf	___flmul@grs+1,f
  2072  0723  0DDA               	rlf	___flmul@grs+2,f
  2073  0724  0DDB               	rlf	___flmul@grs+3,f
  2074  0725  0BD2               	decfsz	??___flmul,f
  2075  0726  2F20               	goto	u2035
  2076  0727                     l1458:	
  2077  0727  30FF               	movlw	255
  2078  0728  07E2               	addwf	___flmul@temp,f
  2079  0729  1803               	skipnc
  2080  072A  0AE3               	incf	___flmul@temp+1,f
  2081  072B  30FF               	movlw	255
  2082  072C  07E3               	addwf	___flmul@temp+1,f
  2083  072D                     l1460:	
  2084  072D  1FE0               	btfss	___flmul@prod+2,7
  2085  072E  2F30               	goto	u2041
  2086  072F  2F31               	goto	u2040
  2087  0730                     u2041:	
  2088  0730  2F10               	goto	l1450
  2089  0731                     u2040:	
  2090  0731                     l1462:	
  2091  0731  01DC               	clrf	___flmul@aexp
  2092  0732                     l1464:	
  2093  0732  1FDB               	btfss	___flmul@grs+3,7
  2094  0733  2F35               	goto	u2051
  2095  0734  2F36               	goto	u2050
  2096  0735                     u2051:	
  2097  0735  2F52               	goto	l1472
  2098  0736                     u2050:	
  2099  0736                     l1466:	
  2100  0736  30FF               	movlw	255
  2101  0737  0558               	andwf	___flmul@grs,w
  2102  0738  00D2               	movwf	??___flmul
  2103  0739  30FF               	movlw	255
  2104  073A  0559               	andwf	___flmul@grs+1,w
  2105  073B  00D3               	movwf	??___flmul+1
  2106  073C  30FF               	movlw	255
  2107  073D  055A               	andwf	___flmul@grs+2,w
  2108  073E  00D4               	movwf	??___flmul+2
  2109  073F  307F               	movlw	127
  2110  0740  055B               	andwf	___flmul@grs+3,w
  2111  0741  00D5               	movwf	??___flmul+3
  2112  0742  0855               	movf	??___flmul+3,w
  2113  0743  0454               	iorwf	??___flmul+2,w
  2114  0744  0453               	iorwf	??___flmul+1,w
  2115  0745  0452               	iorwf	??___flmul,w
  2116  0746  1903               	skipnz
  2117  0747  2F49               	goto	u2061
  2118  0748  2F4A               	goto	u2060
  2119  0749                     u2061:	
  2120  0749  2F4D               	goto	l531
  2121  074A                     u2060:	
  2122  074A                     l1468:	
  2123  074A  01DC               	clrf	___flmul@aexp
  2124  074B  0ADC               	incf	___flmul@aexp,f
  2125  074C  2F52               	goto	l1472
  2126  074D                     l531:	
  2127  074D  1C5E               	btfss	___flmul@prod,0
  2128  074E  2F50               	goto	u2071
  2129  074F  2F51               	goto	u2070
  2130  0750                     u2071:	
  2131  0750  2F52               	goto	l1472
  2132  0751                     u2070:	
  2133  0751  2F4A               	goto	l1468
  2134  0752                     l1472:	
  2135  0752  085C               	movf	___flmul@aexp,w
  2136  0753  1903               	btfsc	3,2
  2137  0754  2F56               	goto	u2081
  2138  0755  2F57               	goto	u2080
  2139  0756                     u2081:	
  2140  0756  2F88               	goto	l1482
  2141  0757                     u2080:	
  2142  0757                     l1474:	
  2143  0757  3001               	movlw	1
  2144  0758  07DE               	addwf	___flmul@prod,f
  2145  0759  3000               	movlw	0
  2146  075A  1803               	skipnc
  2147  075B  3001               	movlw	1
  2148  075C  07DF               	addwf	___flmul@prod+1,f
  2149  075D  3000               	movlw	0
  2150  075E  1803               	skipnc
  2151  075F  3001               	movlw	1
  2152  0760  07E0               	addwf	___flmul@prod+2,f
  2153  0761  3000               	movlw	0
  2154  0762  1803               	skipnc
  2155  0763  3001               	movlw	1
  2156  0764  07E1               	addwf	___flmul@prod+3,f
  2157  0765                     l1476:	
  2158  0765  1C61               	btfss	___flmul@prod+3,0
  2159  0766  2F68               	goto	u2091
  2160  0767  2F69               	goto	u2090
  2161  0768                     u2091:	
  2162  0768  2F88               	goto	l1482
  2163  0769                     u2090:	
  2164  0769                     l1478:	
  2165  0769  085E               	movf	___flmul@prod,w
  2166  076A  00D2               	movwf	??___flmul
  2167  076B  085F               	movf	___flmul@prod+1,w
  2168  076C  00D3               	movwf	??___flmul+1
  2169  076D  0860               	movf	___flmul@prod+2,w
  2170  076E  00D4               	movwf	??___flmul+2
  2171  076F  0861               	movf	___flmul@prod+3,w
  2172  0770  00D5               	movwf	??___flmul+3
  2173  0771  3001               	movlw	1
  2174  0772  00D6               	movwf	??___flmul+4
  2175  0773                     u2105:	
  2176  0773  0D55               	rlf	??___flmul+3,w
  2177  0774  0CD5               	rrf	??___flmul+3,f
  2178  0775  0CD4               	rrf	??___flmul+2,f
  2179  0776  0CD3               	rrf	??___flmul+1,f
  2180  0777  0CD2               	rrf	??___flmul,f
  2181  0778                     u2100:	
  2182  0778  0BD6               	decfsz	??___flmul+4,f
  2183  0779  2F73               	goto	u2105
  2184  077A  0855               	movf	??___flmul+3,w
  2185  077B  00E1               	movwf	___flmul@prod+3
  2186  077C  0854               	movf	??___flmul+2,w
  2187  077D  00E0               	movwf	___flmul@prod+2
  2188  077E  0853               	movf	??___flmul+1,w
  2189  077F  00DF               	movwf	___flmul@prod+1
  2190  0780  0852               	movf	??___flmul,w
  2191  0781  00DE               	movwf	___flmul@prod
  2192  0782                     l1480:	
  2193  0782  3001               	movlw	1
  2194  0783  07E2               	addwf	___flmul@temp,f
  2195  0784  1803               	skipnc
  2196  0785  0AE3               	incf	___flmul@temp+1,f
  2197  0786  3000               	movlw	0
  2198  0787  07E3               	addwf	___flmul@temp+1,f
  2199  0788                     l1482:	
  2200  0788  0863               	movf	___flmul@temp+1,w
  2201  0789  3A80               	xorlw	128
  2202  078A  00FF               	movwf	btemp+1
  2203  078B  3080               	movlw	128
  2204  078C  027F               	subwf	btemp+1,w
  2205  078D  1D03               	skipz
  2206  078E  2F91               	goto	u2115
  2207  078F  30FF               	movlw	255
  2208  0790  0262               	subwf	___flmul@temp,w
  2209  0791                     u2115:	
  2210  0791  1C03               	skipc
  2211  0792  2F94               	goto	u2111
  2212  0793  2F95               	goto	u2110
  2213  0794                     u2111:	
  2214  0794  2FA0               	goto	l1486
  2215  0795                     u2110:	
  2216  0795                     l1484:	
  2217  0795  307F               	movlw	127
  2218  0796  1283               	bcf	3,5	;RP0=0, select bank0
  2219  0797  1303               	bcf	3,6	;RP1=0, select bank0
  2220  0798  00E1               	movwf	___flmul@prod+3
  2221  0799  3080               	movlw	128
  2222  079A  00E0               	movwf	___flmul@prod+2
  2223  079B  3000               	movlw	0
  2224  079C  00DF               	movwf	___flmul@prod+1
  2225  079D  3000               	movlw	0
  2226  079E  00DE               	movwf	___flmul@prod
  2227  079F  2FD5               	goto	l537
  2228  07A0                     l1486:	
  2229  07A0  1283               	bcf	3,5	;RP0=0, select bank0
  2230  07A1  1303               	bcf	3,6	;RP1=0, select bank0
  2231  07A2  0863               	movf	___flmul@temp+1,w
  2232  07A3  3A80               	xorlw	128
  2233  07A4  00FF               	movwf	btemp+1
  2234  07A5  3080               	movlw	128
  2235  07A6  027F               	subwf	btemp+1,w
  2236  07A7  1D03               	skipz
  2237  07A8  2FAB               	goto	u2125
  2238  07A9  3001               	movlw	1
  2239  07AA  0262               	subwf	___flmul@temp,w
  2240  07AB                     u2125:	
  2241  07AB  1803               	skipnc
  2242  07AC  2FAE               	goto	u2121
  2243  07AD  2FAF               	goto	u2120
  2244  07AE                     u2121:	
  2245  07AE  2FBB               	goto	l1492
  2246  07AF                     u2120:	
  2247  07AF                     l1488:	
  2248  07AF  3000               	movlw	0
  2249  07B0  1283               	bcf	3,5	;RP0=0, select bank0
  2250  07B1  1303               	bcf	3,6	;RP1=0, select bank0
  2251  07B2  00E1               	movwf	___flmul@prod+3
  2252  07B3  3000               	movlw	0
  2253  07B4  00E0               	movwf	___flmul@prod+2
  2254  07B5  3000               	movlw	0
  2255  07B6  00DF               	movwf	___flmul@prod+1
  2256  07B7  3000               	movlw	0
  2257  07B8  00DE               	movwf	___flmul@prod
  2258  07B9                     l1490:	
  2259  07B9  01D7               	clrf	___flmul@sign
  2260  07BA  2FD5               	goto	l537
  2261  07BB                     l1492:	
  2262  07BB  1283               	bcf	3,5	;RP0=0, select bank0
  2263  07BC  1303               	bcf	3,6	;RP1=0, select bank0
  2264  07BD  0862               	movf	___flmul@temp,w
  2265  07BE  00D2               	movwf	??___flmul
  2266  07BF  0852               	movf	??___flmul,w
  2267  07C0  00DD               	movwf	___flmul@bexp
  2268  07C1  30FF               	movlw	255
  2269  07C2  05DE               	andwf	___flmul@prod,f
  2270  07C3  30FF               	movlw	255
  2271  07C4  05DF               	andwf	___flmul@prod+1,f
  2272  07C5  307F               	movlw	127
  2273  07C6  05E0               	andwf	___flmul@prod+2,f
  2274  07C7  3000               	movlw	0
  2275  07C8  05E1               	andwf	___flmul@prod+3,f
  2276  07C9                     l1494:	
  2277  07C9  1C5D               	btfss	___flmul@bexp,0
  2278  07CA  2FCC               	goto	u2131
  2279  07CB  2FCD               	goto	u2130
  2280  07CC                     u2131:	
  2281  07CC  2FCE               	goto	l1498
  2282  07CD                     u2130:	
  2283  07CD                     l1496:	
  2284  07CD  17E0               	bsf	___flmul@prod+2,7
  2285  07CE                     l1498:	
  2286  07CE  085D               	movf	___flmul@bexp,w
  2287  07CF  00D2               	movwf	??___flmul
  2288  07D0  1003               	clrc
  2289  07D1  0C52               	rrf	??___flmul,w
  2290  07D2  00D3               	movwf	??___flmul+1
  2291  07D3  0853               	movf	??___flmul+1,w
  2292  07D4  00E1               	movwf	___flmul@prod+3
  2293  07D5                     l537:	
  2294  07D5  0857               	movf	___flmul@sign,w
  2295  07D6  00D2               	movwf	??___flmul
  2296  07D7  0852               	movf	??___flmul,w
  2297  07D8  04E1               	iorwf	___flmul@prod+3,f
  2298  07D9                     l1500:	
  2299  07D9  0861               	movf	___flmul@prod+3,w
  2300  07DA  00CD               	movwf	?___flmul+3
  2301  07DB  0860               	movf	___flmul@prod+2,w
  2302  07DC  00CC               	movwf	?___flmul+2
  2303  07DD  085F               	movf	___flmul@prod+1,w
  2304  07DE  00CB               	movwf	?___flmul+1
  2305  07DF  085E               	movf	___flmul@prod,w
  2306  07E0  00CA               	movwf	?___flmul
  2307  07E1                     l525:	
  2308  07E1  0008               	return
  2309  07E2                     __end_of___flmul:	
  2310                           
  2311                           	psect	text6
  2312  001B                     __ptext6:	
  2313 ;; *************** function __Umul8_16 *****************
  2314 ;; Defined at:
  2315 ;;		line 4 in file "C:\Program Files (x86)\Microchip\xc8\v2.10\pic\sources\c90\common\Umul8_16.c"
  2316 ;; Parameters:    Size  Location     Type
  2317 ;;  multiplier      1    wreg     unsigned char 
  2318 ;;  multiplicand    1    0[COMMON] unsigned char 
  2319 ;; Auto vars:     Size  Location     Type
  2320 ;;  multiplier      1    8[COMMON] unsigned char 
  2321 ;;  word_mpld       2    6[COMMON] unsigned int 
  2322 ;;  product         2    4[COMMON] unsigned int 
  2323 ;; Return value:  Size  Location     Type
  2324 ;;                  2    0[COMMON] unsigned int 
  2325 ;; Registers used:
  2326 ;;		wreg, status,2, status,0
  2327 ;; Tracked objects:
  2328 ;;		On entry : 0/0
  2329 ;;		On exit  : 0/0
  2330 ;;		Unchanged: 0/0
  2331 ;; Data sizes:     COMMON   BANK0   BANK1   BANK3   BANK2
  2332 ;;      Params:         2       0       0       0       0
  2333 ;;      Locals:         5       0       0       0       0
  2334 ;;      Temps:          2       0       0       0       0
  2335 ;;      Totals:         9       0       0       0       0
  2336 ;;Total ram usage:        9 bytes
  2337 ;; Hardware stack levels used:    1
  2338 ;; This function calls:
  2339 ;;		Nothing
  2340 ;; This function is called by:
  2341 ;;		___flmul
  2342 ;; This function uses a non-reentrant model
  2343 ;;
  2344                           
  2345                           
  2346                           ;psect for function __Umul8_16
  2347  001B                     __Umul8_16:	
  2348                           
  2349                           ;incstack = 0
  2350                           ; Regs used in __Umul8_16: [wreg+status,2+status,0]
  2351                           ;__Umul8_16@multiplier stored from wreg
  2352  001B  00F8               	movwf	__Umul8_16@multiplier
  2353  001C                     l1124:	
  2354  001C  01F4               	clrf	__Umul8_16@product
  2355  001D  01F5               	clrf	__Umul8_16@product+1
  2356  001E                     l1126:	
  2357  001E  0870               	movf	__Umul8_16@multiplicand,w
  2358  001F  00F2               	movwf	??__Umul8_16
  2359  0020  01F3               	clrf	??__Umul8_16+1
  2360  0021  0872               	movf	??__Umul8_16,w
  2361  0022  00F6               	movwf	__Umul8_16@word_mpld
  2362  0023  0873               	movf	??__Umul8_16+1,w
  2363  0024  00F7               	movwf	__Umul8_16@word_mpld+1
  2364  0025                     l1128:	
  2365  0025  1C78               	btfss	__Umul8_16@multiplier,0
  2366  0026  2828               	goto	u1201
  2367  0027  2829               	goto	u1200
  2368  0028                     u1201:	
  2369  0028  282F               	goto	l582
  2370  0029                     u1200:	
  2371  0029                     l1130:	
  2372  0029  0876               	movf	__Umul8_16@word_mpld,w
  2373  002A  07F4               	addwf	__Umul8_16@product,f
  2374  002B  1803               	skipnc
  2375  002C  0AF5               	incf	__Umul8_16@product+1,f
  2376  002D  0877               	movf	__Umul8_16@word_mpld+1,w
  2377  002E  07F5               	addwf	__Umul8_16@product+1,f
  2378  002F                     l582:	
  2379  002F  3001               	movlw	1
  2380  0030                     u1215:	
  2381  0030  1003               	clrc
  2382  0031  0DF6               	rlf	__Umul8_16@word_mpld,f
  2383  0032  0DF7               	rlf	__Umul8_16@word_mpld+1,f
  2384  0033  3EFF               	addlw	-1
  2385  0034  1D03               	skipz
  2386  0035  2830               	goto	u1215
  2387  0036  1003               	clrc
  2388  0037  0CF8               	rrf	__Umul8_16@multiplier,f
  2389  0038                     l1132:	
  2390  0038  0878               	movf	__Umul8_16@multiplier,w
  2391  0039  1D03               	btfss	3,2
  2392  003A  283C               	goto	u1221
  2393  003B  283D               	goto	u1220
  2394  003C                     u1221:	
  2395  003C  2825               	goto	l1128
  2396  003D                     u1220:	
  2397  003D                     l1134:	
  2398  003D  0875               	movf	__Umul8_16@product+1,w
  2399  003E  00F1               	movwf	?__Umul8_16+1
  2400  003F  0874               	movf	__Umul8_16@product,w
  2401  0040  00F0               	movwf	?__Umul8_16
  2402  0041                     l584:	
  2403  0041  0008               	return
  2404  0042                     __end_of__Umul8_16:	
  2405                           
  2406                           	psect	text7
  2407  02A4                     __ptext7:	
  2408 ;; *************** function ___fldiv *****************
  2409 ;; Defined at:
  2410 ;;		line 8 in file "C:\Program Files (x86)\Microchip\xc8\v2.10\pic\sources\c90\common\sprcdiv.c"
  2411 ;; Parameters:    Size  Location     Type
  2412 ;;  a               4   16[BANK0 ] unsigned int 
  2413 ;;  b               4   20[BANK0 ] unsigned int 
  2414 ;; Auto vars:     Size  Location     Type
  2415 ;;  grs             4   36[BANK0 ] unsigned long 
  2416 ;;  rem             4   29[BANK0 ] unsigned long 
  2417 ;;  new_exp         2   34[BANK0 ] int 
  2418 ;;  aexp            1   41[BANK0 ] unsigned char 
  2419 ;;  bexp            1   40[BANK0 ] unsigned char 
  2420 ;;  sign            1   33[BANK0 ] unsigned char 
  2421 ;; Return value:  Size  Location     Type
  2422 ;;                  4   16[BANK0 ] unsigned char 
  2423 ;; Registers used:
  2424 ;;		wreg, status,2, status,0, btemp+1
  2425 ;; Tracked objects:
  2426 ;;		On entry : 0/0
  2427 ;;		On exit  : 0/0
  2428 ;;		Unchanged: 0/0
  2429 ;; Data sizes:     COMMON   BANK0   BANK1   BANK3   BANK2
  2430 ;;      Params:         0       8       0       0       0
  2431 ;;      Locals:         0      13       0       0       0
  2432 ;;      Temps:          0       5       0       0       0
  2433 ;;      Totals:         0      26       0       0       0
  2434 ;;Total ram usage:       26 bytes
  2435 ;; Hardware stack levels used:    1
  2436 ;; This function calls:
  2437 ;;		Nothing
  2438 ;; This function is called by:
  2439 ;;		_Pwm1_Duty
  2440 ;; This function uses a non-reentrant model
  2441 ;;
  2442                           
  2443                           
  2444                           ;psect for function ___fldiv
  2445  02A4                     ___fldiv:	
  2446  02A4                     l1222:	
  2447                           ;incstack = 0
  2448                           ; Regs used in ___fldiv: [wreg+status,2+status,0+btemp+1]
  2449                           
  2450  02A4  1283               	bcf	3,5	;RP0=0, select bank0
  2451  02A5  1303               	bcf	3,6	;RP1=0, select bank0
  2452  02A6  0837               	movf	___fldiv@b+3,w
  2453  02A7  3980               	andlw	128
  2454  02A8  00B8               	movwf	??___fldiv
  2455  02A9  0838               	movf	??___fldiv,w
  2456  02AA  00C1               	movwf	___fldiv@sign
  2457  02AB                     l1224:	
  2458  02AB  0837               	movf	___fldiv@b+3,w
  2459  02AC  00B8               	movwf	??___fldiv
  2460  02AD  0738               	addwf	??___fldiv,w
  2461  02AE  00B9               	movwf	??___fldiv+1
  2462  02AF  0839               	movf	??___fldiv+1,w
  2463  02B0  00C8               	movwf	___fldiv@bexp
  2464  02B1                     l1226:	
  2465  02B1  1FB6               	btfss	___fldiv@b+2,7
  2466  02B2  2AB4               	goto	u1481
  2467  02B3  2AB5               	goto	u1480
  2468  02B4                     u1481:	
  2469  02B4  2AB6               	goto	l1230
  2470  02B5                     u1480:	
  2471  02B5                     l1228:	
  2472  02B5  1448               	bsf	___fldiv@bexp,0
  2473  02B6                     l1230:	
  2474  02B6  0848               	movf	___fldiv@bexp,w
  2475  02B7  1903               	btfsc	3,2
  2476  02B8  2ABA               	goto	u1491
  2477  02B9  2ABB               	goto	u1490
  2478  02BA                     u1491:	
  2479  02BA  2ACB               	goto	l1240
  2480  02BB                     u1490:	
  2481  02BB                     l1232:	
  2482  02BB  0A48               	incf	___fldiv@bexp,w
  2483  02BC  1D03               	btfss	3,2
  2484  02BD  2ABF               	goto	u1501
  2485  02BE  2AC0               	goto	u1500
  2486  02BF                     u1501:	
  2487  02BF  2AC8               	goto	l1236
  2488  02C0                     u1500:	
  2489  02C0                     l1234:	
  2490  02C0  3000               	movlw	0
  2491  02C1  00B7               	movwf	___fldiv@b+3
  2492  02C2  3000               	movlw	0
  2493  02C3  00B6               	movwf	___fldiv@b+2
  2494  02C4  3000               	movlw	0
  2495  02C5  00B5               	movwf	___fldiv@b+1
  2496  02C6  3000               	movlw	0
  2497  02C7  00B4               	movwf	___fldiv@b
  2498  02C8                     l1236:	
  2499  02C8  17B6               	bsf	___fldiv@b+2,7
  2500  02C9                     l1238:	
  2501  02C9  01B7               	clrf	___fldiv@b+3
  2502  02CA  2AD3               	goto	l1242
  2503  02CB                     l1240:	
  2504  02CB  3000               	movlw	0
  2505  02CC  00B7               	movwf	___fldiv@b+3
  2506  02CD  3000               	movlw	0
  2507  02CE  00B6               	movwf	___fldiv@b+2
  2508  02CF  3000               	movlw	0
  2509  02D0  00B5               	movwf	___fldiv@b+1
  2510  02D1  3000               	movlw	0
  2511  02D2  00B4               	movwf	___fldiv@b
  2512  02D3                     l1242:	
  2513  02D3  0833               	movf	___fldiv@a+3,w
  2514  02D4  3980               	andlw	128
  2515  02D5  00B8               	movwf	??___fldiv
  2516  02D6  0838               	movf	??___fldiv,w
  2517  02D7  06C1               	xorwf	___fldiv@sign,f
  2518  02D8                     l1244:	
  2519  02D8  0833               	movf	___fldiv@a+3,w
  2520  02D9  00B8               	movwf	??___fldiv
  2521  02DA  0738               	addwf	??___fldiv,w
  2522  02DB  00B9               	movwf	??___fldiv+1
  2523  02DC  0839               	movf	??___fldiv+1,w
  2524  02DD  00C9               	movwf	___fldiv@aexp
  2525  02DE                     l1246:	
  2526  02DE  1FB2               	btfss	___fldiv@a+2,7
  2527  02DF  2AE1               	goto	u1511
  2528  02E0  2AE2               	goto	u1510
  2529  02E1                     u1511:	
  2530  02E1  2AE3               	goto	l1250
  2531  02E2                     u1510:	
  2532  02E2                     l1248:	
  2533  02E2  1449               	bsf	___fldiv@aexp,0
  2534  02E3                     l1250:	
  2535  02E3  0849               	movf	___fldiv@aexp,w
  2536  02E4  1903               	btfsc	3,2
  2537  02E5  2AE7               	goto	u1521
  2538  02E6  2AE8               	goto	u1520
  2539  02E7                     u1521:	
  2540  02E7  2AF8               	goto	l1260
  2541  02E8                     u1520:	
  2542  02E8                     l1252:	
  2543  02E8  0A49               	incf	___fldiv@aexp,w
  2544  02E9  1D03               	btfss	3,2
  2545  02EA  2AEC               	goto	u1531
  2546  02EB  2AED               	goto	u1530
  2547  02EC                     u1531:	
  2548  02EC  2AF5               	goto	l1256
  2549  02ED                     u1530:	
  2550  02ED                     l1254:	
  2551  02ED  3000               	movlw	0
  2552  02EE  00B3               	movwf	___fldiv@a+3
  2553  02EF  3000               	movlw	0
  2554  02F0  00B2               	movwf	___fldiv@a+2
  2555  02F1  3000               	movlw	0
  2556  02F2  00B1               	movwf	___fldiv@a+1
  2557  02F3  3000               	movlw	0
  2558  02F4  00B0               	movwf	___fldiv@a
  2559  02F5                     l1256:	
  2560  02F5  17B2               	bsf	___fldiv@a+2,7
  2561  02F6                     l1258:	
  2562  02F6  01B3               	clrf	___fldiv@a+3
  2563  02F7  2B00               	goto	l485
  2564  02F8                     l1260:	
  2565  02F8  3000               	movlw	0
  2566  02F9  00B3               	movwf	___fldiv@a+3
  2567  02FA  3000               	movlw	0
  2568  02FB  00B2               	movwf	___fldiv@a+2
  2569  02FC  3000               	movlw	0
  2570  02FD  00B1               	movwf	___fldiv@a+1
  2571  02FE  3000               	movlw	0
  2572  02FF  00B0               	movwf	___fldiv@a
  2573  0300                     l485:	
  2574  0300  0833               	movf	___fldiv@a+3,w
  2575  0301  0432               	iorwf	___fldiv@a+2,w
  2576  0302  0431               	iorwf	___fldiv@a+1,w
  2577  0303  0430               	iorwf	___fldiv@a,w
  2578  0304  1D03               	skipz
  2579  0305  2B07               	goto	u1541
  2580  0306  2B08               	goto	u1540
  2581  0307                     u1541:	
  2582  0307  2B21               	goto	l1270
  2583  0308                     u1540:	
  2584  0308                     l1262:	
  2585  0308  3000               	movlw	0
  2586  0309  00B7               	movwf	___fldiv@b+3
  2587  030A  3000               	movlw	0
  2588  030B  00B6               	movwf	___fldiv@b+2
  2589  030C  3000               	movlw	0
  2590  030D  00B5               	movwf	___fldiv@b+1
  2591  030E  3000               	movlw	0
  2592  030F  00B4               	movwf	___fldiv@b
  2593  0310  3080               	movlw	128
  2594  0311  04B6               	iorwf	___fldiv@b+2,f
  2595  0312  307F               	movlw	127
  2596  0313  04B7               	iorwf	___fldiv@b+3,f
  2597  0314                     l1264:	
  2598  0314  0841               	movf	___fldiv@sign,w
  2599  0315  00B8               	movwf	??___fldiv
  2600  0316  0838               	movf	??___fldiv,w
  2601  0317  04B7               	iorwf	___fldiv@b+3,f
  2602  0318                     l1266:	
  2603  0318  0837               	movf	___fldiv@b+3,w
  2604  0319  00B3               	movwf	?___fldiv+3
  2605  031A  0836               	movf	___fldiv@b+2,w
  2606  031B  00B2               	movwf	?___fldiv+2
  2607  031C  0835               	movf	___fldiv@b+1,w
  2608  031D  00B1               	movwf	?___fldiv+1
  2609  031E  0834               	movf	___fldiv@b,w
  2610  031F  00B0               	movwf	?___fldiv
  2611  0320  2C80               	goto	l487
  2612  0321                     l1270:	
  2613  0321  0848               	movf	___fldiv@bexp,w
  2614  0322  1D03               	btfss	3,2
  2615  0323  2B25               	goto	u1551
  2616  0324  2B26               	goto	u1550
  2617  0325                     u1551:	
  2618  0325  2B2F               	goto	l1276
  2619  0326                     u1550:	
  2620  0326                     l1272:	
  2621  0326  3000               	movlw	0
  2622  0327  00B3               	movwf	?___fldiv+3
  2623  0328  3000               	movlw	0
  2624  0329  00B2               	movwf	?___fldiv+2
  2625  032A  3000               	movlw	0
  2626  032B  00B1               	movwf	?___fldiv+1
  2627  032C  3000               	movlw	0
  2628  032D  00B0               	movwf	?___fldiv
  2629  032E  2C80               	goto	l487
  2630  032F                     l1276:	
  2631  032F  0848               	movf	___fldiv@bexp,w
  2632  0330  00B8               	movwf	??___fldiv
  2633  0331  01B9               	clrf	??___fldiv+1
  2634  0332  0839               	movf	??___fldiv+1,w
  2635  0333  00BB               	movwf	??___fldiv+3
  2636  0334  0849               	movf	___fldiv@aexp,w
  2637  0335  0238               	subwf	??___fldiv,w
  2638  0336  00BA               	movwf	??___fldiv+2
  2639  0337  1C03               	skipc
  2640  0338  03BB               	decf	??___fldiv+3,f
  2641  0339  083A               	movf	??___fldiv+2,w
  2642  033A  3E7F               	addlw	127
  2643  033B  00C2               	movwf	___fldiv@new_exp
  2644  033C  083B               	movf	??___fldiv+3,w
  2645  033D  1803               	skipnc
  2646  033E  3E01               	addlw	1
  2647  033F  3E00               	addlw	0
  2648  0340  00C3               	movwf	___fldiv@new_exp+1
  2649  0341                     l1278:	
  2650  0341  0837               	movf	___fldiv@b+3,w
  2651  0342  00C0               	movwf	___fldiv@rem+3
  2652  0343  0836               	movf	___fldiv@b+2,w
  2653  0344  00BF               	movwf	___fldiv@rem+2
  2654  0345  0835               	movf	___fldiv@b+1,w
  2655  0346  00BE               	movwf	___fldiv@rem+1
  2656  0347  0834               	movf	___fldiv@b,w
  2657  0348  00BD               	movwf	___fldiv@rem
  2658  0349                     l1280:	
  2659  0349  3000               	movlw	0
  2660  034A  00B7               	movwf	___fldiv@b+3
  2661  034B  3000               	movlw	0
  2662  034C  00B6               	movwf	___fldiv@b+2
  2663  034D  3000               	movlw	0
  2664  034E  00B5               	movwf	___fldiv@b+1
  2665  034F  3000               	movlw	0
  2666  0350  00B4               	movwf	___fldiv@b
  2667  0351                     l1282:	
  2668  0351  3000               	movlw	0
  2669  0352  00C7               	movwf	___fldiv@grs+3
  2670  0353  3000               	movlw	0
  2671  0354  00C6               	movwf	___fldiv@grs+2
  2672  0355  3000               	movlw	0
  2673  0356  00C5               	movwf	___fldiv@grs+1
  2674  0357  3000               	movlw	0
  2675  0358  00C4               	movwf	___fldiv@grs
  2676  0359                     l1284:	
  2677  0359  01C9               	clrf	___fldiv@aexp
  2678  035A  2BA5               	goto	l1304
  2679  035B                     l1286:	
  2680  035B  0849               	movf	___fldiv@aexp,w
  2681  035C  1903               	btfsc	3,2
  2682  035D  2B5F               	goto	u1561
  2683  035E  2B60               	goto	u1560
  2684  035F                     u1561:	
  2685  035F  2B80               	goto	l1296
  2686  0360                     u1560:	
  2687  0360                     l1288:	
  2688  0360  3001               	movlw	1
  2689  0361  00B8               	movwf	??___fldiv
  2690  0362                     u1575:	
  2691  0362  1003               	clrc
  2692  0363  0DBD               	rlf	___fldiv@rem,f
  2693  0364  0DBE               	rlf	___fldiv@rem+1,f
  2694  0365  0DBF               	rlf	___fldiv@rem+2,f
  2695  0366  0DC0               	rlf	___fldiv@rem+3,f
  2696  0367  0BB8               	decfsz	??___fldiv,f
  2697  0368  2B62               	goto	u1575
  2698  0369  3001               	movlw	1
  2699  036A  00B8               	movwf	??___fldiv
  2700  036B                     u1585:	
  2701  036B  1003               	clrc
  2702  036C  0DB4               	rlf	___fldiv@b,f
  2703  036D  0DB5               	rlf	___fldiv@b+1,f
  2704  036E  0DB6               	rlf	___fldiv@b+2,f
  2705  036F  0DB7               	rlf	___fldiv@b+3,f
  2706  0370  0BB8               	decfsz	??___fldiv,f
  2707  0371  2B6B               	goto	u1585
  2708  0372                     l1290:	
  2709  0372  1FC7               	btfss	___fldiv@grs+3,7
  2710  0373  2B75               	goto	u1591
  2711  0374  2B76               	goto	u1590
  2712  0375                     u1591:	
  2713  0375  2B77               	goto	l1294
  2714  0376                     u1590:	
  2715  0376                     l1292:	
  2716  0376  1434               	bsf	___fldiv@b,0
  2717  0377                     l1294:	
  2718  0377  3001               	movlw	1
  2719  0378  00B8               	movwf	??___fldiv
  2720  0379                     u1605:	
  2721  0379  1003               	clrc
  2722  037A  0DC4               	rlf	___fldiv@grs,f
  2723  037B  0DC5               	rlf	___fldiv@grs+1,f
  2724  037C  0DC6               	rlf	___fldiv@grs+2,f
  2725  037D  0DC7               	rlf	___fldiv@grs+3,f
  2726  037E  0BB8               	decfsz	??___fldiv,f
  2727  037F  2B79               	goto	u1605
  2728  0380                     l1296:	
  2729  0380  0833               	movf	___fldiv@a+3,w
  2730  0381  0240               	subwf	___fldiv@rem+3,w
  2731  0382  1D03               	skipz
  2732  0383  2B8E               	goto	u1615
  2733  0384  0832               	movf	___fldiv@a+2,w
  2734  0385  023F               	subwf	___fldiv@rem+2,w
  2735  0386  1D03               	skipz
  2736  0387  2B8E               	goto	u1615
  2737  0388  0831               	movf	___fldiv@a+1,w
  2738  0389  023E               	subwf	___fldiv@rem+1,w
  2739  038A  1D03               	skipz
  2740  038B  2B8E               	goto	u1615
  2741  038C  0830               	movf	___fldiv@a,w
  2742  038D  023D               	subwf	___fldiv@rem,w
  2743  038E                     u1615:	
  2744  038E  1C03               	skipc
  2745  038F  2B91               	goto	u1611
  2746  0390  2B92               	goto	u1610
  2747  0391                     u1611:	
  2748  0391  2BA1               	goto	l1302
  2749  0392                     u1610:	
  2750  0392                     l1298:	
  2751  0392  1747               	bsf	___fldiv@grs+3,6
  2752  0393                     l1300:	
  2753  0393  0830               	movf	___fldiv@a,w
  2754  0394  02BD               	subwf	___fldiv@rem,f
  2755  0395  0831               	movf	___fldiv@a+1,w
  2756  0396  1C03               	skipc
  2757  0397  0F31               	incfsz	___fldiv@a+1,w
  2758  0398  02BE               	subwf	___fldiv@rem+1,f
  2759  0399  0832               	movf	___fldiv@a+2,w
  2760  039A  1C03               	skipc
  2761  039B  0F32               	incfsz	___fldiv@a+2,w
  2762  039C  02BF               	subwf	___fldiv@rem+2,f
  2763  039D  0833               	movf	___fldiv@a+3,w
  2764  039E  1C03               	skipc
  2765  039F  0F33               	incfsz	___fldiv@a+3,w
  2766  03A0  02C0               	subwf	___fldiv@rem+3,f
  2767  03A1                     l1302:	
  2768  03A1  3001               	movlw	1
  2769  03A2  00B8               	movwf	??___fldiv
  2770  03A3  0838               	movf	??___fldiv,w
  2771  03A4  07C9               	addwf	___fldiv@aexp,f
  2772  03A5                     l1304:	
  2773  03A5  301A               	movlw	26
  2774  03A6  0249               	subwf	___fldiv@aexp,w
  2775  03A7  1C03               	skipc
  2776  03A8  2BAA               	goto	u1621
  2777  03A9  2BAB               	goto	u1620
  2778  03AA                     u1621:	
  2779  03AA  2B5B               	goto	l1286
  2780  03AB                     u1620:	
  2781  03AB                     l1306:	
  2782  03AB  0840               	movf	___fldiv@rem+3,w
  2783  03AC  043F               	iorwf	___fldiv@rem+2,w
  2784  03AD  043E               	iorwf	___fldiv@rem+1,w
  2785  03AE  043D               	iorwf	___fldiv@rem,w
  2786  03AF  1903               	skipnz
  2787  03B0  2BB2               	goto	u1631
  2788  03B1  2BB3               	goto	u1630
  2789  03B2                     u1631:	
  2790  03B2  2BD2               	goto	l1320
  2791  03B3                     u1630:	
  2792  03B3                     l1308:	
  2793  03B3  1444               	bsf	___fldiv@grs,0
  2794  03B4  2BD2               	goto	l1320
  2795  03B5                     l1310:	
  2796  03B5  3001               	movlw	1
  2797  03B6  00B8               	movwf	??___fldiv
  2798  03B7                     u1645:	
  2799  03B7  1003               	clrc
  2800  03B8  0DB4               	rlf	___fldiv@b,f
  2801  03B9  0DB5               	rlf	___fldiv@b+1,f
  2802  03BA  0DB6               	rlf	___fldiv@b+2,f
  2803  03BB  0DB7               	rlf	___fldiv@b+3,f
  2804  03BC  0BB8               	decfsz	??___fldiv,f
  2805  03BD  2BB7               	goto	u1645
  2806  03BE                     l1312:	
  2807  03BE  1FC7               	btfss	___fldiv@grs+3,7
  2808  03BF  2BC1               	goto	u1651
  2809  03C0  2BC2               	goto	u1650
  2810  03C1                     u1651:	
  2811  03C1  2BC3               	goto	l1316
  2812  03C2                     u1650:	
  2813  03C2                     l1314:	
  2814  03C2  1434               	bsf	___fldiv@b,0
  2815  03C3                     l1316:	
  2816  03C3  3001               	movlw	1
  2817  03C4  00B8               	movwf	??___fldiv
  2818  03C5                     u1665:	
  2819  03C5  1003               	clrc
  2820  03C6  0DC4               	rlf	___fldiv@grs,f
  2821  03C7  0DC5               	rlf	___fldiv@grs+1,f
  2822  03C8  0DC6               	rlf	___fldiv@grs+2,f
  2823  03C9  0DC7               	rlf	___fldiv@grs+3,f
  2824  03CA  0BB8               	decfsz	??___fldiv,f
  2825  03CB  2BC5               	goto	u1665
  2826  03CC                     l1318:	
  2827  03CC  30FF               	movlw	255
  2828  03CD  07C2               	addwf	___fldiv@new_exp,f
  2829  03CE  1803               	skipnc
  2830  03CF  0AC3               	incf	___fldiv@new_exp+1,f
  2831  03D0  30FF               	movlw	255
  2832  03D1  07C3               	addwf	___fldiv@new_exp+1,f
  2833  03D2                     l1320:	
  2834  03D2  1FB6               	btfss	___fldiv@b+2,7
  2835  03D3  2BD5               	goto	u1671
  2836  03D4  2BD6               	goto	u1670
  2837  03D5                     u1671:	
  2838  03D5  2BB5               	goto	l1310
  2839  03D6                     u1670:	
  2840  03D6                     l1322:	
  2841  03D6  01C9               	clrf	___fldiv@aexp
  2842  03D7                     l1324:	
  2843  03D7  1FC7               	btfss	___fldiv@grs+3,7
  2844  03D8  2BDA               	goto	u1681
  2845  03D9  2BDB               	goto	u1680
  2846  03DA                     u1681:	
  2847  03DA  2BF7               	goto	l1332
  2848  03DB                     u1680:	
  2849  03DB                     l1326:	
  2850  03DB  30FF               	movlw	255
  2851  03DC  0544               	andwf	___fldiv@grs,w
  2852  03DD  00B8               	movwf	??___fldiv
  2853  03DE  30FF               	movlw	255
  2854  03DF  0545               	andwf	___fldiv@grs+1,w
  2855  03E0  00B9               	movwf	??___fldiv+1
  2856  03E1  30FF               	movlw	255
  2857  03E2  0546               	andwf	___fldiv@grs+2,w
  2858  03E3  00BA               	movwf	??___fldiv+2
  2859  03E4  307F               	movlw	127
  2860  03E5  0547               	andwf	___fldiv@grs+3,w
  2861  03E6  00BB               	movwf	??___fldiv+3
  2862  03E7  083B               	movf	??___fldiv+3,w
  2863  03E8  043A               	iorwf	??___fldiv+2,w
  2864  03E9  0439               	iorwf	??___fldiv+1,w
  2865  03EA  0438               	iorwf	??___fldiv,w
  2866  03EB  1903               	skipnz
  2867  03EC  2BEE               	goto	u1691
  2868  03ED  2BEF               	goto	u1690
  2869  03EE                     u1691:	
  2870  03EE  2BF2               	goto	l501
  2871  03EF                     u1690:	
  2872  03EF                     l1328:	
  2873  03EF  01C9               	clrf	___fldiv@aexp
  2874  03F0  0AC9               	incf	___fldiv@aexp,f
  2875  03F1  2BF7               	goto	l1332
  2876  03F2                     l501:	
  2877  03F2  1C34               	btfss	___fldiv@b,0
  2878  03F3  2BF5               	goto	u1701
  2879  03F4  2BF6               	goto	u1700
  2880  03F5                     u1701:	
  2881  03F5  2BF7               	goto	l1332
  2882  03F6                     u1700:	
  2883  03F6  2BEF               	goto	l1328
  2884  03F7                     l1332:	
  2885  03F7  0849               	movf	___fldiv@aexp,w
  2886  03F8  1903               	btfsc	3,2
  2887  03F9  2BFB               	goto	u1711
  2888  03FA  2BFC               	goto	u1710
  2889  03FB                     u1711:	
  2890  03FB  2C2D               	goto	l1342
  2891  03FC                     u1710:	
  2892  03FC                     l1334:	
  2893  03FC  3001               	movlw	1
  2894  03FD  07B4               	addwf	___fldiv@b,f
  2895  03FE  3000               	movlw	0
  2896  03FF  1803               	skipnc
  2897  0400  3001               	movlw	1
  2898  0401  07B5               	addwf	___fldiv@b+1,f
  2899  0402  3000               	movlw	0
  2900  0403  1803               	skipnc
  2901  0404  3001               	movlw	1
  2902  0405  07B6               	addwf	___fldiv@b+2,f
  2903  0406  3000               	movlw	0
  2904  0407  1803               	skipnc
  2905  0408  3001               	movlw	1
  2906  0409  07B7               	addwf	___fldiv@b+3,f
  2907  040A                     l1336:	
  2908  040A  1C37               	btfss	___fldiv@b+3,0
  2909  040B  2C0D               	goto	u1721
  2910  040C  2C0E               	goto	u1720
  2911  040D                     u1721:	
  2912  040D  2C2D               	goto	l1342
  2913  040E                     u1720:	
  2914  040E                     l1338:	
  2915  040E  0834               	movf	___fldiv@b,w
  2916  040F  00B8               	movwf	??___fldiv
  2917  0410  0835               	movf	___fldiv@b+1,w
  2918  0411  00B9               	movwf	??___fldiv+1
  2919  0412  0836               	movf	___fldiv@b+2,w
  2920  0413  00BA               	movwf	??___fldiv+2
  2921  0414  0837               	movf	___fldiv@b+3,w
  2922  0415  00BB               	movwf	??___fldiv+3
  2923  0416  3001               	movlw	1
  2924  0417  00BC               	movwf	??___fldiv+4
  2925  0418                     u1735:	
  2926  0418  0D3B               	rlf	??___fldiv+3,w
  2927  0419  0CBB               	rrf	??___fldiv+3,f
  2928  041A  0CBA               	rrf	??___fldiv+2,f
  2929  041B  0CB9               	rrf	??___fldiv+1,f
  2930  041C  0CB8               	rrf	??___fldiv,f
  2931  041D                     u1730:	
  2932  041D  0BBC               	decfsz	??___fldiv+4,f
  2933  041E  2C18               	goto	u1735
  2934  041F  083B               	movf	??___fldiv+3,w
  2935  0420  00B7               	movwf	___fldiv@b+3
  2936  0421  083A               	movf	??___fldiv+2,w
  2937  0422  00B6               	movwf	___fldiv@b+2
  2938  0423  0839               	movf	??___fldiv+1,w
  2939  0424  00B5               	movwf	___fldiv@b+1
  2940  0425  0838               	movf	??___fldiv,w
  2941  0426  00B4               	movwf	___fldiv@b
  2942  0427                     l1340:	
  2943  0427  3001               	movlw	1
  2944  0428  07C2               	addwf	___fldiv@new_exp,f
  2945  0429  1803               	skipnc
  2946  042A  0AC3               	incf	___fldiv@new_exp+1,f
  2947  042B  3000               	movlw	0
  2948  042C  07C3               	addwf	___fldiv@new_exp+1,f
  2949  042D                     l1342:	
  2950  042D  0843               	movf	___fldiv@new_exp+1,w
  2951  042E  3A80               	xorlw	128
  2952  042F  00FF               	movwf	btemp+1
  2953  0430  3080               	movlw	128
  2954  0431  027F               	subwf	btemp+1,w
  2955  0432  1D03               	skipz
  2956  0433  2C36               	goto	u1745
  2957  0434  30FF               	movlw	255
  2958  0435  0242               	subwf	___fldiv@new_exp,w
  2959  0436                     u1745:	
  2960  0436  1C03               	skipc
  2961  0437  2C39               	goto	u1741
  2962  0438  2C3A               	goto	u1740
  2963  0439                     u1741:	
  2964  0439  2C48               	goto	l1346
  2965  043A                     u1740:	
  2966  043A                     l1344:	
  2967  043A  30FF               	movlw	255
  2968  043B  1283               	bcf	3,5	;RP0=0, select bank0
  2969  043C  1303               	bcf	3,6	;RP1=0, select bank0
  2970  043D  00C2               	movwf	___fldiv@new_exp
  2971  043E  3000               	movlw	0
  2972  043F  00C3               	movwf	___fldiv@new_exp+1
  2973  0440  3000               	movlw	0
  2974  0441  00B7               	movwf	___fldiv@b+3
  2975  0442  3000               	movlw	0
  2976  0443  00B6               	movwf	___fldiv@b+2
  2977  0444  3000               	movlw	0
  2978  0445  00B5               	movwf	___fldiv@b+1
  2979  0446  3000               	movlw	0
  2980  0447  00B4               	movwf	___fldiv@b
  2981  0448                     l1346:	
  2982  0448  1283               	bcf	3,5	;RP0=0, select bank0
  2983  0449  1303               	bcf	3,6	;RP1=0, select bank0
  2984  044A  0843               	movf	___fldiv@new_exp+1,w
  2985  044B  3A80               	xorlw	128
  2986  044C  00FF               	movwf	btemp+1
  2987  044D  3080               	movlw	128
  2988  044E  027F               	subwf	btemp+1,w
  2989  044F  1D03               	skipz
  2990  0450  2C53               	goto	u1755
  2991  0451  3001               	movlw	1
  2992  0452  0242               	subwf	___fldiv@new_exp,w
  2993  0453                     u1755:	
  2994  0453  1803               	skipnc
  2995  0454  2C56               	goto	u1751
  2996  0455  2C57               	goto	u1750
  2997  0456                     u1751:	
  2998  0456  2C64               	goto	l507
  2999  0457                     u1750:	
  3000  0457                     l1348:	
  3001  0457  1283               	bcf	3,5	;RP0=0, select bank0
  3002  0458  1303               	bcf	3,6	;RP1=0, select bank0
  3003  0459  01C2               	clrf	___fldiv@new_exp
  3004  045A  01C3               	clrf	___fldiv@new_exp+1
  3005  045B                     l1350:	
  3006  045B  3000               	movlw	0
  3007  045C  00B7               	movwf	___fldiv@b+3
  3008  045D  3000               	movlw	0
  3009  045E  00B6               	movwf	___fldiv@b+2
  3010  045F  3000               	movlw	0
  3011  0460  00B5               	movwf	___fldiv@b+1
  3012  0461  3000               	movlw	0
  3013  0462  00B4               	movwf	___fldiv@b
  3014  0463                     l1352:	
  3015  0463  01C1               	clrf	___fldiv@sign
  3016  0464                     l507:	
  3017  0464  1283               	bcf	3,5	;RP0=0, select bank0
  3018  0465  1303               	bcf	3,6	;RP1=0, select bank0
  3019  0466  0842               	movf	___fldiv@new_exp,w
  3020  0467  00B8               	movwf	??___fldiv
  3021  0468  0838               	movf	??___fldiv,w
  3022  0469  00C8               	movwf	___fldiv@bexp
  3023  046A                     l1354:	
  3024  046A  1C48               	btfss	___fldiv@bexp,0
  3025  046B  2C6D               	goto	u1761
  3026  046C  2C6E               	goto	u1760
  3027  046D                     u1761:	
  3028  046D  2C70               	goto	l1358
  3029  046E                     u1760:	
  3030  046E                     l1356:	
  3031  046E  17B6               	bsf	___fldiv@b+2,7
  3032  046F  2C74               	goto	l509
  3033  0470                     l1358:	
  3034  0470  307F               	movlw	127
  3035  0471  00B8               	movwf	??___fldiv
  3036  0472  0838               	movf	??___fldiv,w
  3037  0473  05B6               	andwf	___fldiv@b+2,f
  3038  0474                     l509:	
  3039  0474  0848               	movf	___fldiv@bexp,w
  3040  0475  00B8               	movwf	??___fldiv
  3041  0476  1003               	clrc
  3042  0477  0C38               	rrf	??___fldiv,w
  3043  0478  00B9               	movwf	??___fldiv+1
  3044  0479  0839               	movf	??___fldiv+1,w
  3045  047A  00B7               	movwf	___fldiv@b+3
  3046  047B  0841               	movf	___fldiv@sign,w
  3047  047C  00B8               	movwf	??___fldiv
  3048  047D  0838               	movf	??___fldiv,w
  3049  047E  04B7               	iorwf	___fldiv@b+3,f
  3050  047F  2B18               	goto	l1266
  3051  0480                     l487:	
  3052  0480  0008               	return
  3053  0481                     __end_of___fldiv:	
  3054                           
  3055                           	psect	text8
  3056  0FAF                     __ptext8:	
  3057 ;; *************** function _Pwm_Call_Duty *****************
  3058 ;; Defined at:
  3059 ;;		line 15 in file "pwm.c"
  3060 ;; Parameters:    Size  Location     Type
  3061 ;;		None
  3062 ;; Auto vars:     Size  Location     Type
  3063 ;;		None
  3064 ;; Return value:  Size  Location     Type
  3065 ;;                  4   16[BANK0 ] unsigned char 
  3066 ;; Registers used:
  3067 ;;		wreg, status,2, status,0, pclath, cstack
  3068 ;; Tracked objects:
  3069 ;;		On entry : 0/0
  3070 ;;		On exit  : 0/0
  3071 ;;		Unchanged: 0/0
  3072 ;; Data sizes:     COMMON   BANK0   BANK1   BANK3   BANK2
  3073 ;;      Params:         0       4       0       0       0
  3074 ;;      Locals:         0       0       0       0       0
  3075 ;;      Temps:          0       4       0       0       0
  3076 ;;      Totals:         0       8       0       0       0
  3077 ;;Total ram usage:        8 bytes
  3078 ;; Hardware stack levels used:    1
  3079 ;; Hardware stack levels required when called:    1
  3080 ;; This function calls:
  3081 ;;		___aldiv
  3082 ;;		___xxtofl
  3083 ;; This function is called by:
  3084 ;;		_Pwm1_Duty
  3085 ;; This function uses a non-reentrant model
  3086 ;;
  3087                           
  3088                           
  3089                           ;psect for function _Pwm_Call_Duty
  3090  0FAF                     _Pwm_Call_Duty:	
  3091  0FAF                     l1182:	
  3092                           ;incstack = 0
  3093                           ; Regs used in _Pwm_Call_Duty: [wreg+status,2+status,0+pclath+cstack]
  3094                           
  3095                           
  3096                           ;pwm.c: 17:     return (4000000/(freq*4));
  3097  0FAF  3000               	movlw	0
  3098  0FB0  00F7               	movwf	___aldiv@dividend+3
  3099  0FB1  303D               	movlw	61
  3100  0FB2  00F6               	movwf	___aldiv@dividend+2
  3101  0FB3  3009               	movlw	9
  3102  0FB4  00F5               	movwf	___aldiv@dividend+1
  3103  0FB5  3000               	movlw	0
  3104  0FB6  00F4               	movwf	___aldiv@dividend
  3105  0FB7  1683               	bsf	3,5	;RP0=1, select bank1
  3106  0FB8  1303               	bcf	3,6	;RP1=0, select bank1
  3107  0FB9  0820               	movf	_freq^(0+128),w
  3108  0FBA  1283               	bcf	3,5	;RP0=0, select bank0
  3109  0FBB  1303               	bcf	3,6	;RP1=0, select bank0
  3110  0FBC  00B4               	movwf	??_Pwm_Call_Duty
  3111  0FBD  1683               	bsf	3,5	;RP0=1, select bank1
  3112  0FBE  1303               	bcf	3,6	;RP1=0, select bank1
  3113  0FBF  0821               	movf	(_freq+1)^(0+128),w
  3114  0FC0  1283               	bcf	3,5	;RP0=0, select bank0
  3115  0FC1  1303               	bcf	3,6	;RP1=0, select bank0
  3116  0FC2  00B5               	movwf	??_Pwm_Call_Duty+1
  3117  0FC3  1683               	bsf	3,5	;RP0=1, select bank1
  3118  0FC4  1303               	bcf	3,6	;RP1=0, select bank1
  3119  0FC5  0822               	movf	(_freq+2)^(0+128),w
  3120  0FC6  1283               	bcf	3,5	;RP0=0, select bank0
  3121  0FC7  1303               	bcf	3,6	;RP1=0, select bank0
  3122  0FC8  00B6               	movwf	??_Pwm_Call_Duty+2
  3123  0FC9  1683               	bsf	3,5	;RP0=1, select bank1
  3124  0FCA  1303               	bcf	3,6	;RP1=0, select bank1
  3125  0FCB  0823               	movf	(_freq+3)^(0+128),w
  3126  0FCC  1283               	bcf	3,5	;RP0=0, select bank0
  3127  0FCD  1303               	bcf	3,6	;RP1=0, select bank0
  3128  0FCE  00B7               	movwf	??_Pwm_Call_Duty+3
  3129  0FCF  3002               	movlw	2
  3130  0FD0                     u1375:	
  3131  0FD0  1003               	clrc
  3132  0FD1  0DB4               	rlf	??_Pwm_Call_Duty,f
  3133  0FD2  0DB5               	rlf	??_Pwm_Call_Duty+1,f
  3134  0FD3  0DB6               	rlf	??_Pwm_Call_Duty+2,f
  3135  0FD4  0DB7               	rlf	??_Pwm_Call_Duty+3,f
  3136  0FD5                     u1370:	
  3137  0FD5  3EFF               	addlw	-1
  3138  0FD6  1D03               	skipz
  3139  0FD7  2FD0               	goto	u1375
  3140  0FD8  0837               	movf	??_Pwm_Call_Duty+3,w
  3141  0FD9  00F3               	movwf	___aldiv@divisor+3
  3142  0FDA  0836               	movf	??_Pwm_Call_Duty+2,w
  3143  0FDB  00F2               	movwf	___aldiv@divisor+2
  3144  0FDC  0835               	movf	??_Pwm_Call_Duty+1,w
  3145  0FDD  00F1               	movwf	___aldiv@divisor+1
  3146  0FDE  0834               	movf	??_Pwm_Call_Duty,w
  3147  0FDF  00F0               	movwf	___aldiv@divisor
  3148  0FE0  120A  118A  214B  120A  158A  	fcall	___aldiv
  3149  0FE5  0873               	movf	?___aldiv+3,w
  3150  0FE6  1283               	bcf	3,5	;RP0=0, select bank0
  3151  0FE7  1303               	bcf	3,6	;RP1=0, select bank0
  3152  0FE8  00A9               	movwf	___xxtofl@val+3
  3153  0FE9  0872               	movf	?___aldiv+2,w
  3154  0FEA  00A8               	movwf	___xxtofl@val+2
  3155  0FEB  0871               	movf	?___aldiv+1,w
  3156  0FEC  00A7               	movwf	___xxtofl@val+1
  3157  0FED  0870               	movf	?___aldiv,w
  3158  0FEE  00A6               	movwf	___xxtofl@val
  3159  0FEF  3001               	movlw	1
  3160  0FF0  120A  118A  21E8  120A  158A  	fcall	___xxtofl
  3161  0FF5  1283               	bcf	3,5	;RP0=0, select bank0
  3162  0FF6  1303               	bcf	3,6	;RP1=0, select bank0
  3163  0FF7  0829               	movf	?___xxtofl+3,w
  3164  0FF8  00B3               	movwf	?_Pwm_Call_Duty+3
  3165  0FF9  0828               	movf	?___xxtofl+2,w
  3166  0FFA  00B2               	movwf	?_Pwm_Call_Duty+2
  3167  0FFB  0827               	movf	?___xxtofl+1,w
  3168  0FFC  00B1               	movwf	?_Pwm_Call_Duty+1
  3169  0FFD  0826               	movf	?___xxtofl,w
  3170  0FFE  00B0               	movwf	?_Pwm_Call_Duty
  3171  0FFF                     l40:	
  3172  0FFF  0008               	return
  3173  1000                     __end_of_Pwm_Call_Duty:	
  3174                           
  3175                           	psect	text9
  3176  01E8                     __ptext9:	
  3177 ;; *************** function ___xxtofl *****************
  3178 ;; Defined at:
  3179 ;;		line 10 in file "C:\Program Files (x86)\Microchip\xc8\v2.10\pic\sources\c90\common\xxtofl.c"
  3180 ;; Parameters:    Size  Location     Type
  3181 ;;  sign            1    wreg     unsigned char 
  3182 ;;  val             4    6[BANK0 ] long 
  3183 ;; Auto vars:     Size  Location     Type
  3184 ;;  sign            1   10[BANK0 ] unsigned char 
  3185 ;;  arg             4   12[BANK0 ] unsigned long 
  3186 ;;  exp             1   11[BANK0 ] unsigned char 
  3187 ;; Return value:  Size  Location     Type
  3188 ;;                  4    6[BANK0 ] unsigned char 
  3189 ;; Registers used:
  3190 ;;		wreg, status,2, status,0
  3191 ;; Tracked objects:
  3192 ;;		On entry : 0/0
  3193 ;;		On exit  : 0/0
  3194 ;;		Unchanged: 0/0
  3195 ;; Data sizes:     COMMON   BANK0   BANK1   BANK3   BANK2
  3196 ;;      Params:         0       4       0       0       0
  3197 ;;      Locals:         0       6       0       0       0
  3198 ;;      Temps:          4       0       0       0       0
  3199 ;;      Totals:         4      10       0       0       0
  3200 ;;Total ram usage:       14 bytes
  3201 ;; Hardware stack levels used:    1
  3202 ;; This function calls:
  3203 ;;		Nothing
  3204 ;; This function is called by:
  3205 ;;		_Pwm_Call_Duty
  3206 ;;		_Pwm1_Duty
  3207 ;; This function uses a non-reentrant model
  3208 ;;
  3209                           
  3210                           
  3211                           ;psect for function ___xxtofl
  3212  01E8                     ___xxtofl:	
  3213                           
  3214                           ;incstack = 0
  3215                           ; Regs used in ___xxtofl: [wreg+status,2+status,0]
  3216                           ;___xxtofl@sign stored from wreg
  3217  01E8  1283               	bcf	3,5	;RP0=0, select bank0
  3218  01E9  1303               	bcf	3,6	;RP1=0, select bank0
  3219  01EA  00AA               	movwf	___xxtofl@sign
  3220  01EB                     l1138:	
  3221  01EB  082A               	movf	___xxtofl@sign,w
  3222  01EC  1903               	btfsc	3,2
  3223  01ED  29EF               	goto	u1231
  3224  01EE  29F0               	goto	u1230
  3225  01EF                     u1231:	
  3226  01EF  2A04               	goto	l1144
  3227  01F0                     u1230:	
  3228  01F0                     l1140:	
  3229  01F0  1FA9               	btfss	___xxtofl@val+3,7
  3230  01F1  29F3               	goto	u1241
  3231  01F2  29F4               	goto	u1240
  3232  01F3                     u1241:	
  3233  01F3  2A04               	goto	l1144
  3234  01F4                     u1240:	
  3235  01F4                     l1142:	
  3236  01F4  0926               	comf	___xxtofl@val,w
  3237  01F5  00AC               	movwf	___xxtofl@arg
  3238  01F6  0927               	comf	___xxtofl@val+1,w
  3239  01F7  00AD               	movwf	___xxtofl@arg+1
  3240  01F8  0928               	comf	___xxtofl@val+2,w
  3241  01F9  00AE               	movwf	___xxtofl@arg+2
  3242  01FA  0929               	comf	___xxtofl@val+3,w
  3243  01FB  00AF               	movwf	___xxtofl@arg+3
  3244  01FC  0AAC               	incf	___xxtofl@arg,f
  3245  01FD  1903               	skipnz
  3246  01FE  0AAD               	incf	___xxtofl@arg+1,f
  3247  01FF  1903               	skipnz
  3248  0200  0AAE               	incf	___xxtofl@arg+2,f
  3249  0201  1903               	skipnz
  3250  0202  0AAF               	incf	___xxtofl@arg+3,f
  3251  0203  2A0C               	goto	l563
  3252  0204                     l1144:	
  3253  0204  0829               	movf	___xxtofl@val+3,w
  3254  0205  00AF               	movwf	___xxtofl@arg+3
  3255  0206  0828               	movf	___xxtofl@val+2,w
  3256  0207  00AE               	movwf	___xxtofl@arg+2
  3257  0208  0827               	movf	___xxtofl@val+1,w
  3258  0209  00AD               	movwf	___xxtofl@arg+1
  3259  020A  0826               	movf	___xxtofl@val,w
  3260  020B  00AC               	movwf	___xxtofl@arg
  3261  020C                     l563:	
  3262  020C  0829               	movf	___xxtofl@val+3,w
  3263  020D  0428               	iorwf	___xxtofl@val+2,w
  3264  020E  0427               	iorwf	___xxtofl@val+1,w
  3265  020F  0426               	iorwf	___xxtofl@val,w
  3266  0210  1D03               	skipz
  3267  0211  2A13               	goto	u1251
  3268  0212  2A14               	goto	u1250
  3269  0213                     u1251:	
  3270  0213  2A1D               	goto	l1150
  3271  0214                     u1250:	
  3272  0214                     l1146:	
  3273  0214  3000               	movlw	0
  3274  0215  00A9               	movwf	?___xxtofl+3
  3275  0216  3000               	movlw	0
  3276  0217  00A8               	movwf	?___xxtofl+2
  3277  0218  3000               	movlw	0
  3278  0219  00A7               	movwf	?___xxtofl+1
  3279  021A  3000               	movlw	0
  3280  021B  00A6               	movwf	?___xxtofl
  3281  021C  2AA3               	goto	l565
  3282  021D                     l1150:	
  3283  021D  3096               	movlw	150
  3284  021E  00F9               	movwf	??___xxtofl
  3285  021F  0879               	movf	??___xxtofl,w
  3286  0220  00AB               	movwf	___xxtofl@exp
  3287  0221  2A2F               	goto	l1154
  3288  0222                     l1152:	
  3289  0222  3001               	movlw	1
  3290  0223  00F9               	movwf	??___xxtofl
  3291  0224  0879               	movf	??___xxtofl,w
  3292  0225  07AB               	addwf	___xxtofl@exp,f
  3293  0226  3001               	movlw	1
  3294  0227                     u1265:	
  3295  0227  1003               	clrc
  3296  0228  0CAF               	rrf	___xxtofl@arg+3,f
  3297  0229  0CAE               	rrf	___xxtofl@arg+2,f
  3298  022A  0CAD               	rrf	___xxtofl@arg+1,f
  3299  022B  0CAC               	rrf	___xxtofl@arg,f
  3300  022C  3EFF               	addlw	-1
  3301  022D  1D03               	skipz
  3302  022E  2A27               	goto	u1265
  3303  022F                     l1154:	
  3304  022F  30FE               	movlw	254
  3305  0230  052F               	andwf	___xxtofl@arg+3,w
  3306  0231  1D03               	btfss	3,2
  3307  0232  2A34               	goto	u1271
  3308  0233  2A35               	goto	u1270
  3309  0234                     u1271:	
  3310  0234  2A22               	goto	l1152
  3311  0235                     u1270:	
  3312  0235  2A51               	goto	l569
  3313  0236                     l1156:	
  3314  0236  3001               	movlw	1
  3315  0237  00F9               	movwf	??___xxtofl
  3316  0238  0879               	movf	??___xxtofl,w
  3317  0239  07AB               	addwf	___xxtofl@exp,f
  3318  023A                     l1158:	
  3319  023A  3001               	movlw	1
  3320  023B  07AC               	addwf	___xxtofl@arg,f
  3321  023C  3000               	movlw	0
  3322  023D  1803               	skipnc
  3323  023E  3001               	movlw	1
  3324  023F  07AD               	addwf	___xxtofl@arg+1,f
  3325  0240  3000               	movlw	0
  3326  0241  1803               	skipnc
  3327  0242  3001               	movlw	1
  3328  0243  07AE               	addwf	___xxtofl@arg+2,f
  3329  0244  3000               	movlw	0
  3330  0245  1803               	skipnc
  3331  0246  3001               	movlw	1
  3332  0247  07AF               	addwf	___xxtofl@arg+3,f
  3333  0248                     l1160:	
  3334  0248  3001               	movlw	1
  3335  0249                     u1285:	
  3336  0249  1003               	clrc
  3337  024A  0CAF               	rrf	___xxtofl@arg+3,f
  3338  024B  0CAE               	rrf	___xxtofl@arg+2,f
  3339  024C  0CAD               	rrf	___xxtofl@arg+1,f
  3340  024D  0CAC               	rrf	___xxtofl@arg,f
  3341  024E  3EFF               	addlw	-1
  3342  024F  1D03               	skipz
  3343  0250  2A49               	goto	u1285
  3344  0251                     l569:	
  3345  0251  30FF               	movlw	255
  3346  0252  052F               	andwf	___xxtofl@arg+3,w
  3347  0253  1D03               	btfss	3,2
  3348  0254  2A56               	goto	u1291
  3349  0255  2A57               	goto	u1290
  3350  0256                     u1291:	
  3351  0256  2A36               	goto	l1156
  3352  0257                     u1290:	
  3353  0257  2A63               	goto	l1164
  3354  0258                     l1162:	
  3355  0258  3001               	movlw	1
  3356  0259  02AB               	subwf	___xxtofl@exp,f
  3357  025A  3001               	movlw	1
  3358  025B  00F9               	movwf	??___xxtofl
  3359  025C                     u1305:	
  3360  025C  1003               	clrc
  3361  025D  0DAC               	rlf	___xxtofl@arg,f
  3362  025E  0DAD               	rlf	___xxtofl@arg+1,f
  3363  025F  0DAE               	rlf	___xxtofl@arg+2,f
  3364  0260  0DAF               	rlf	___xxtofl@arg+3,f
  3365  0261  0BF9               	decfsz	??___xxtofl,f
  3366  0262  2A5C               	goto	u1305
  3367  0263                     l1164:	
  3368  0263  1BAE               	btfsc	___xxtofl@arg+2,7
  3369  0264  2A66               	goto	u1311
  3370  0265  2A67               	goto	u1310
  3371  0266                     u1311:	
  3372  0266  2A6D               	goto	l576
  3373  0267                     u1310:	
  3374  0267                     l1166:	
  3375  0267  3002               	movlw	2
  3376  0268  022B               	subwf	___xxtofl@exp,w
  3377  0269  1803               	skipnc
  3378  026A  2A6C               	goto	u1321
  3379  026B  2A6D               	goto	u1320
  3380  026C                     u1321:	
  3381  026C  2A58               	goto	l1162
  3382  026D                     u1320:	
  3383  026D                     l576:	
  3384  026D  182B               	btfsc	___xxtofl@exp,0
  3385  026E  2A70               	goto	u1331
  3386  026F  2A71               	goto	u1330
  3387  0270                     u1331:	
  3388  0270  2A79               	goto	l577
  3389  0271                     u1330:	
  3390  0271                     l1168:	
  3391  0271  30FF               	movlw	255
  3392  0272  05AC               	andwf	___xxtofl@arg,f
  3393  0273  30FF               	movlw	255
  3394  0274  05AD               	andwf	___xxtofl@arg+1,f
  3395  0275  307F               	movlw	127
  3396  0276  05AE               	andwf	___xxtofl@arg+2,f
  3397  0277  30FF               	movlw	255
  3398  0278  05AF               	andwf	___xxtofl@arg+3,f
  3399  0279                     l577:	
  3400  0279  1003               	clrc
  3401  027A  0CAB               	rrf	___xxtofl@exp,f
  3402  027B                     l1170:	
  3403  027B  082B               	movf	___xxtofl@exp,w
  3404  027C  00F9               	movwf	??___xxtofl
  3405  027D  01FA               	clrf	??___xxtofl+1
  3406  027E  01FB               	clrf	??___xxtofl+2
  3407  027F  01FC               	clrf	??___xxtofl+3
  3408  0280  3018               	movlw	24
  3409  0281                     u1345:	
  3410  0281  1003               	clrc
  3411  0282  0DF9               	rlf	??___xxtofl,f
  3412  0283  0DFA               	rlf	??___xxtofl+1,f
  3413  0284  0DFB               	rlf	??___xxtofl+2,f
  3414  0285  0DFC               	rlf	??___xxtofl+3,f
  3415  0286                     u1340:	
  3416  0286  3EFF               	addlw	-1
  3417  0287  1D03               	skipz
  3418  0288  2A81               	goto	u1345
  3419  0289  0879               	movf	??___xxtofl,w
  3420  028A  04AC               	iorwf	___xxtofl@arg,f
  3421  028B  087A               	movf	??___xxtofl+1,w
  3422  028C  04AD               	iorwf	___xxtofl@arg+1,f
  3423  028D  087B               	movf	??___xxtofl+2,w
  3424  028E  04AE               	iorwf	___xxtofl@arg+2,f
  3425  028F  087C               	movf	??___xxtofl+3,w
  3426  0290  04AF               	iorwf	___xxtofl@arg+3,f
  3427  0291                     l1172:	
  3428  0291  082A               	movf	___xxtofl@sign,w
  3429  0292  1903               	btfsc	3,2
  3430  0293  2A95               	goto	u1351
  3431  0294  2A96               	goto	u1350
  3432  0295                     u1351:	
  3433  0295  2A9B               	goto	l1178
  3434  0296                     u1350:	
  3435  0296                     l1174:	
  3436  0296  1FA9               	btfss	___xxtofl@val+3,7
  3437  0297  2A99               	goto	u1361
  3438  0298  2A9A               	goto	u1360
  3439  0299                     u1361:	
  3440  0299  2A9B               	goto	l1178
  3441  029A                     u1360:	
  3442  029A                     l1176:	
  3443  029A  17AF               	bsf	___xxtofl@arg+3,7
  3444  029B                     l1178:	
  3445  029B  082F               	movf	___xxtofl@arg+3,w
  3446  029C  00A9               	movwf	?___xxtofl+3
  3447  029D  082E               	movf	___xxtofl@arg+2,w
  3448  029E  00A8               	movwf	?___xxtofl+2
  3449  029F  082D               	movf	___xxtofl@arg+1,w
  3450  02A0  00A7               	movwf	?___xxtofl+1
  3451  02A1  082C               	movf	___xxtofl@arg,w
  3452  02A2  00A6               	movwf	?___xxtofl
  3453  02A3                     l565:	
  3454  02A3  0008               	return
  3455  02A4                     __end_of___xxtofl:	
  3456                           
  3457                           	psect	text10
  3458  014B                     __ptext10:	
  3459 ;; *************** function ___aldiv *****************
  3460 ;; Defined at:
  3461 ;;		line 5 in file "C:\Program Files (x86)\Microchip\xc8\v2.10\pic\sources\c90\common\aldiv.c"
  3462 ;; Parameters:    Size  Location     Type
  3463 ;;  divisor         4    0[COMMON] long 
  3464 ;;  dividend        4    4[COMMON] long 
  3465 ;; Auto vars:     Size  Location     Type
  3466 ;;  quotient        4    2[BANK0 ] long 
  3467 ;;  sign            1    1[BANK0 ] unsigned char 
  3468 ;;  counter         1    0[BANK0 ] unsigned char 
  3469 ;; Return value:  Size  Location     Type
  3470 ;;                  4    0[COMMON] long 
  3471 ;; Registers used:
  3472 ;;		wreg, status,2, status,0
  3473 ;; Tracked objects:
  3474 ;;		On entry : 0/0
  3475 ;;		On exit  : 0/0
  3476 ;;		Unchanged: 0/0
  3477 ;; Data sizes:     COMMON   BANK0   BANK1   BANK3   BANK2
  3478 ;;      Params:         8       0       0       0       0
  3479 ;;      Locals:         0       6       0       0       0
  3480 ;;      Temps:          1       0       0       0       0
  3481 ;;      Totals:         9       6       0       0       0
  3482 ;;Total ram usage:       15 bytes
  3483 ;; Hardware stack levels used:    1
  3484 ;; This function calls:
  3485 ;;		Nothing
  3486 ;; This function is called by:
  3487 ;;		_Pwm_Call_Duty
  3488 ;;		_Pwm1_Init
  3489 ;; This function uses a non-reentrant model
  3490 ;;
  3491                           
  3492                           
  3493                           ;psect for function ___aldiv
  3494  014B                     ___aldiv:	
  3495  014B                     l1084:	
  3496                           ;incstack = 0
  3497                           ; Regs used in ___aldiv: [wreg+status,2+status,0]
  3498                           
  3499  014B  1283               	bcf	3,5	;RP0=0, select bank0
  3500  014C  1303               	bcf	3,6	;RP1=0, select bank0
  3501  014D  01A1               	clrf	___aldiv@sign
  3502  014E                     l1086:	
  3503  014E  1FF3               	btfss	___aldiv@divisor+3,7
  3504  014F  2951               	goto	u1101
  3505  0150  2952               	goto	u1100
  3506  0151                     u1101:	
  3507  0151  295F               	goto	l201
  3508  0152                     u1100:	
  3509  0152                     l1088:	
  3510  0152  09F0               	comf	___aldiv@divisor,f
  3511  0153  09F1               	comf	___aldiv@divisor+1,f
  3512  0154  09F2               	comf	___aldiv@divisor+2,f
  3513  0155  09F3               	comf	___aldiv@divisor+3,f
  3514  0156  0AF0               	incf	___aldiv@divisor,f
  3515  0157  1903               	skipnz
  3516  0158  0AF1               	incf	___aldiv@divisor+1,f
  3517  0159  1903               	skipnz
  3518  015A  0AF2               	incf	___aldiv@divisor+2,f
  3519  015B  1903               	skipnz
  3520  015C  0AF3               	incf	___aldiv@divisor+3,f
  3521  015D  01A1               	clrf	___aldiv@sign
  3522  015E  0AA1               	incf	___aldiv@sign,f
  3523  015F                     l201:	
  3524  015F  1FF7               	btfss	___aldiv@dividend+3,7
  3525  0160  2962               	goto	u1111
  3526  0161  2963               	goto	u1110
  3527  0162                     u1111:	
  3528  0162  2972               	goto	l1094
  3529  0163                     u1110:	
  3530  0163                     l1090:	
  3531  0163  09F4               	comf	___aldiv@dividend,f
  3532  0164  09F5               	comf	___aldiv@dividend+1,f
  3533  0165  09F6               	comf	___aldiv@dividend+2,f
  3534  0166  09F7               	comf	___aldiv@dividend+3,f
  3535  0167  0AF4               	incf	___aldiv@dividend,f
  3536  0168  1903               	skipnz
  3537  0169  0AF5               	incf	___aldiv@dividend+1,f
  3538  016A  1903               	skipnz
  3539  016B  0AF6               	incf	___aldiv@dividend+2,f
  3540  016C  1903               	skipnz
  3541  016D  0AF7               	incf	___aldiv@dividend+3,f
  3542  016E                     l1092:	
  3543  016E  3001               	movlw	1
  3544  016F  00F8               	movwf	??___aldiv
  3545  0170  0878               	movf	??___aldiv,w
  3546  0171  06A1               	xorwf	___aldiv@sign,f
  3547  0172                     l1094:	
  3548  0172  3000               	movlw	0
  3549  0173  00A5               	movwf	___aldiv@quotient+3
  3550  0174  3000               	movlw	0
  3551  0175  00A4               	movwf	___aldiv@quotient+2
  3552  0176  3000               	movlw	0
  3553  0177  00A3               	movwf	___aldiv@quotient+1
  3554  0178  3000               	movlw	0
  3555  0179  00A2               	movwf	___aldiv@quotient
  3556  017A                     l1096:	
  3557  017A  0873               	movf	___aldiv@divisor+3,w
  3558  017B  0472               	iorwf	___aldiv@divisor+2,w
  3559  017C  0471               	iorwf	___aldiv@divisor+1,w
  3560  017D  0470               	iorwf	___aldiv@divisor,w
  3561  017E  1903               	skipnz
  3562  017F  2981               	goto	u1121
  3563  0180  2982               	goto	u1120
  3564  0181                     u1121:	
  3565  0181  29CF               	goto	l1116
  3566  0182                     u1120:	
  3567  0182                     l1098:	
  3568  0182  01A0               	clrf	___aldiv@counter
  3569  0183  0AA0               	incf	___aldiv@counter,f
  3570  0184  2992               	goto	l1102
  3571  0185                     l1100:	
  3572  0185  3001               	movlw	1
  3573  0186  00F8               	movwf	??___aldiv
  3574  0187                     u1135:	
  3575  0187  1003               	clrc
  3576  0188  0DF0               	rlf	___aldiv@divisor,f
  3577  0189  0DF1               	rlf	___aldiv@divisor+1,f
  3578  018A  0DF2               	rlf	___aldiv@divisor+2,f
  3579  018B  0DF3               	rlf	___aldiv@divisor+3,f
  3580  018C  0BF8               	decfsz	??___aldiv,f
  3581  018D  2987               	goto	u1135
  3582  018E  3001               	movlw	1
  3583  018F  00F8               	movwf	??___aldiv
  3584  0190  0878               	movf	??___aldiv,w
  3585  0191  07A0               	addwf	___aldiv@counter,f
  3586  0192                     l1102:	
  3587  0192  1FF3               	btfss	___aldiv@divisor+3,7
  3588  0193  2995               	goto	u1141
  3589  0194  2996               	goto	u1140
  3590  0195                     u1141:	
  3591  0195  2985               	goto	l1100
  3592  0196                     u1140:	
  3593  0196                     l1104:	
  3594  0196  3001               	movlw	1
  3595  0197  00F8               	movwf	??___aldiv
  3596  0198                     u1155:	
  3597  0198  1003               	clrc
  3598  0199  0DA2               	rlf	___aldiv@quotient,f
  3599  019A  0DA3               	rlf	___aldiv@quotient+1,f
  3600  019B  0DA4               	rlf	___aldiv@quotient+2,f
  3601  019C  0DA5               	rlf	___aldiv@quotient+3,f
  3602  019D  0BF8               	decfsz	??___aldiv,f
  3603  019E  2998               	goto	u1155
  3604  019F                     l1106:	
  3605  019F  0873               	movf	___aldiv@divisor+3,w
  3606  01A0  0277               	subwf	___aldiv@dividend+3,w
  3607  01A1  1D03               	skipz
  3608  01A2  29AD               	goto	u1165
  3609  01A3  0872               	movf	___aldiv@divisor+2,w
  3610  01A4  0276               	subwf	___aldiv@dividend+2,w
  3611  01A5  1D03               	skipz
  3612  01A6  29AD               	goto	u1165
  3613  01A7  0871               	movf	___aldiv@divisor+1,w
  3614  01A8  0275               	subwf	___aldiv@dividend+1,w
  3615  01A9  1D03               	skipz
  3616  01AA  29AD               	goto	u1165
  3617  01AB  0870               	movf	___aldiv@divisor,w
  3618  01AC  0274               	subwf	___aldiv@dividend,w
  3619  01AD                     u1165:	
  3620  01AD  1C03               	skipc
  3621  01AE  29B0               	goto	u1161
  3622  01AF  29B1               	goto	u1160
  3623  01B0                     u1161:	
  3624  01B0  29C0               	goto	l1112
  3625  01B1                     u1160:	
  3626  01B1                     l1108:	
  3627  01B1  0870               	movf	___aldiv@divisor,w
  3628  01B2  02F4               	subwf	___aldiv@dividend,f
  3629  01B3  0871               	movf	___aldiv@divisor+1,w
  3630  01B4  1C03               	skipc
  3631  01B5  0F71               	incfsz	___aldiv@divisor+1,w
  3632  01B6  02F5               	subwf	___aldiv@dividend+1,f
  3633  01B7  0872               	movf	___aldiv@divisor+2,w
  3634  01B8  1C03               	skipc
  3635  01B9  0F72               	incfsz	___aldiv@divisor+2,w
  3636  01BA  02F6               	subwf	___aldiv@dividend+2,f
  3637  01BB  0873               	movf	___aldiv@divisor+3,w
  3638  01BC  1C03               	skipc
  3639  01BD  0F73               	incfsz	___aldiv@divisor+3,w
  3640  01BE  02F7               	subwf	___aldiv@dividend+3,f
  3641  01BF                     l1110:	
  3642  01BF  1422               	bsf	___aldiv@quotient,0
  3643  01C0                     l1112:	
  3644  01C0  3001               	movlw	1
  3645  01C1                     u1175:	
  3646  01C1  1003               	clrc
  3647  01C2  0CF3               	rrf	___aldiv@divisor+3,f
  3648  01C3  0CF2               	rrf	___aldiv@divisor+2,f
  3649  01C4  0CF1               	rrf	___aldiv@divisor+1,f
  3650  01C5  0CF0               	rrf	___aldiv@divisor,f
  3651  01C6  3EFF               	addlw	-1
  3652  01C7  1D03               	skipz
  3653  01C8  29C1               	goto	u1175
  3654  01C9                     l1114:	
  3655  01C9  3001               	movlw	1
  3656  01CA  02A0               	subwf	___aldiv@counter,f
  3657  01CB  1D03               	btfss	3,2
  3658  01CC  29CE               	goto	u1181
  3659  01CD  29CF               	goto	u1180
  3660  01CE                     u1181:	
  3661  01CE  2996               	goto	l1104
  3662  01CF                     u1180:	
  3663  01CF                     l1116:	
  3664  01CF  0821               	movf	___aldiv@sign,w
  3665  01D0  1903               	btfsc	3,2
  3666  01D1  29D3               	goto	u1191
  3667  01D2  29D4               	goto	u1190
  3668  01D3                     u1191:	
  3669  01D3  29DF               	goto	l1120
  3670  01D4                     u1190:	
  3671  01D4                     l1118:	
  3672  01D4  09A2               	comf	___aldiv@quotient,f
  3673  01D5  09A3               	comf	___aldiv@quotient+1,f
  3674  01D6  09A4               	comf	___aldiv@quotient+2,f
  3675  01D7  09A5               	comf	___aldiv@quotient+3,f
  3676  01D8  0AA2               	incf	___aldiv@quotient,f
  3677  01D9  1903               	skipnz
  3678  01DA  0AA3               	incf	___aldiv@quotient+1,f
  3679  01DB  1903               	skipnz
  3680  01DC  0AA4               	incf	___aldiv@quotient+2,f
  3681  01DD  1903               	skipnz
  3682  01DE  0AA5               	incf	___aldiv@quotient+3,f
  3683  01DF                     l1120:	
  3684  01DF  0825               	movf	___aldiv@quotient+3,w
  3685  01E0  00F3               	movwf	?___aldiv+3
  3686  01E1  0824               	movf	___aldiv@quotient+2,w
  3687  01E2  00F2               	movwf	?___aldiv+2
  3688  01E3  0823               	movf	___aldiv@quotient+1,w
  3689  01E4  00F1               	movwf	?___aldiv+1
  3690  01E5  0822               	movf	___aldiv@quotient,w
  3691  01E6  00F0               	movwf	?___aldiv
  3692  01E7                     l211:	
  3693  01E7  0008               	return
  3694  01E8                     __end_of___aldiv:	
  3695  007E                     btemp	set	126	;btemp
  3696  007E                     wtemp0	set	126


Data Sizes:
    Strings     0
    Constant    0
    Data        4
    BSS         0
    Persistent  0
    Stack       0

Auto Spaces:
    Space          Size  Autos    Used
    COMMON           14     13      13
    BANK0            80     79      79
    BANK1            80      4       8
    BANK3            96      0       0
    BANK2            96      0       0

Pointer List with Targets:

    None.

Critical Paths under _main in COMMON

    _main->_Pwm1_Init
    _Pwm1_Init->___aldiv
    _Pwm1_Duty->___xxtofl
    ___fltol->___xxtofl
    ___flmul->___xxtofl
    ___fldiv->___xxtofl
    _Pwm_Call_Duty->___xxtofl
    ___xxtofl->___aldiv

Critical Paths under _main in BANK0

    _Pwm1_Init->___aldiv
    _Pwm1_Duty->___fltol
    ___fltol->___flmul
    ___flmul->___fldiv
    ___fldiv->___xxtofl
    _Pwm_Call_Duty->___xxtofl
    ___xxtofl->___aldiv

Critical Paths under _main in BANK1

    _main->_Pwm1_Duty

Critical Paths under _main in BANK3

    None.

Critical Paths under _main in BANK2

    None.

Call Graph Tables:

 ---------------------------------------------------------------------------------
 (Depth) Function   	        Calls       Base Space   Used Autos Params    Refs
 ---------------------------------------------------------------------------------
 (0) _main                                                 0     0      0    6436
                          _Pwm1_Duty
                          _Pwm1_Init
                         _Pwm1_Start
 ---------------------------------------------------------------------------------
 (1) _Pwm1_Start                                           0     0      0       0
 ---------------------------------------------------------------------------------
 (1) _Pwm1_Init                                            8     4      4     724
                                              9 COMMON     4     4      0
                                              6 BANK0      4     0      4
                            ___aldiv
 ---------------------------------------------------------------------------------
 (1) _Pwm1_Duty                                            4     2      2    5712
                                              0 BANK1      4     2      2
                      _Pwm_Call_Duty
                            ___fldiv
                            ___flmul
                            ___fltol
                           ___xxtofl
 ---------------------------------------------------------------------------------
 (2) ___fltol                                             11     7      4     305
                                             68 BANK0     11     7      4
                      _Pwm_Call_Duty (ARG)
                            ___fldiv (ARG)
                            ___flmul (ARG)
                           ___xxtofl (ARG)
 ---------------------------------------------------------------------------------
 (2) ___flmul                                             26    18      8    2417
                                             42 BANK0     26    18      8
                      _Pwm_Call_Duty (ARG)
                          __Umul8_16
                            ___fldiv (ARG)
                           ___xxtofl (ARG)
 ---------------------------------------------------------------------------------
 (3) __Umul8_16                                            9     7      2     799
                                              0 COMMON     9     7      2
 ---------------------------------------------------------------------------------
 (2) ___fldiv                                             26    18      8    1273
                                             16 BANK0     26    18      8
                           ___xxtofl (ARG)
 ---------------------------------------------------------------------------------
 (2) _Pwm_Call_Duty                                        8     4      4    1078
                                             16 BANK0      8     4      4
                            ___aldiv
                           ___xxtofl
 ---------------------------------------------------------------------------------
 (2) ___xxtofl                                            14    10      4     474
                                              9 COMMON     4     4      0
                                              6 BANK0     10     6      4
                            ___aldiv (ARG)
 ---------------------------------------------------------------------------------
 (2) ___aldiv                                             15     7      8     604
                                              0 COMMON     9     1      8
                                              0 BANK0      6     6      0
 ---------------------------------------------------------------------------------
 Estimated maximum stack depth 3
 ---------------------------------------------------------------------------------

 Call Graph Graphs:

 _main (ROOT)
   _Pwm1_Duty
     _Pwm_Call_Duty
       ___aldiv
       ___xxtofl
         ___aldiv (ARG)
     ___fldiv
       ___xxtofl (ARG)
         ___aldiv (ARG)
     ___flmul
       _Pwm_Call_Duty (ARG)
         ___aldiv
         ___xxtofl
           ___aldiv (ARG)
       __Umul8_16 (ARG)
       ___fldiv (ARG)
         ___xxtofl (ARG)
           ___aldiv (ARG)
       ___xxtofl (ARG)
         ___aldiv (ARG)
     ___fltol
       _Pwm_Call_Duty (ARG)
         ___aldiv
         ___xxtofl
           ___aldiv (ARG)
       ___fldiv (ARG)
         ___xxtofl (ARG)
           ___aldiv (ARG)
       ___flmul (ARG)
         _Pwm_Call_Duty (ARG)
           ___aldiv
           ___xxtofl
             ___aldiv (ARG)
         __Umul8_16 (ARG)
         ___fldiv (ARG)
           ___xxtofl (ARG)
             ___aldiv (ARG)
         ___xxtofl (ARG)
           ___aldiv (ARG)
       ___xxtofl (ARG)
         ___aldiv (ARG)
     ___xxtofl
       ___aldiv (ARG)
   _Pwm1_Init
     ___aldiv
   _Pwm1_Start

 Address spaces:
Name               Size   Autos  Total    Cost      Usage
BANK3               60      0       0       9        0.0%
BITBANK3            60      0       0       8        0.0%
SFR3                 0      0       0       4        0.0%
BITSFR3              0      0       0       4        0.0%
BANK2               60      0       0      11        0.0%
BITBANK2            60      0       0      10        0.0%
SFR2                 0      0       0       5        0.0%
BITSFR2              0      0       0       5        0.0%
BANK1               50      4       8       7       10.0%
BITBANK1            50      0       0       6        0.0%
SFR1                 0      0       0       2        0.0%
BITSFR1              0      0       0       2        0.0%
BANK0               50     4F      4F       5       98.8%
BITBANK0            50      0       0       4        0.0%
SFR0                 0      0       0       1        0.0%
BITSFR0              0      0       0       1        0.0%
COMMON               E      D       D       1       92.9%
BITCOMMON            E      0       0       0        0.0%
CODE                 0      0       0       0        0.0%
DATA                 0      0      64      12        0.0%
ABS                  0      0      64       3        0.0%
NULL                 0      0       0       0        0.0%
STACK                0      0       0       2        0.0%
EEDATA             100      0       0       0        0.0%


Microchip Technology PIC Macro Assembler V2.10 build 88905656 
Symbol Table                                                                                   Fri Oct 04 22:42:40 2019

           ___fldiv@aexp 0049             ___fldiv@bexp 0048             ___fldiv@sign 0041  
            __CFG_CP$OFF 0000                       l14 0F5D                       l15 0F5D  
                     l40 0FFF                       l50 0FAE                       l43 001A  
                     l47 014A      __Umul8_16@word_mpld 0076                      l201 015F  
                    l211 01E7                      l322 00BD                      l332 00BD  
                    l501 03F2                      l329 00A8                      l507 0464  
                    l531 074D                      l509 0474                      l525 07E1  
                    l537 07D5                      l563 020C                      l565 02A3  
                    l485 0300                      l582 002F                      l487 0480  
                    l576 026D                      l584 0041                      l577 0279  
                    l569 0251                      _PR2 0092             __CFG_CPD$OFF 0000  
           __CFG_FOSC$XT 0000             ___flmul@aexp 005C             ___flmul@bexp 005D  
           ___flmul@sign 0057             ___flmul@temp 0062             ___flmul@prod 005E  
           __CFG_LVP$OFF 0000             ___fltol@exp1 006E                     l1100 0185  
                   l1110 01BF                     l1102 0192                     l1120 01DF  
                   l1112 01C0                     l1104 0196                     l1200 0078  
                   l1114 01C9                     l1106 019F                     l1130 0029  
                   l1202 007C                     l1210 0096                     l1108 01B1  
                   l1116 01CF                     l1140 01F0                     l1300 0393  
                   l1132 0038                     l1124 001C                     l1220 00B2  
                   l1118 01D4                     l1150 021D                     l1142 01F4  
                   l1310 03B5                     l1302 03A1                     l1230 02B6  
                   l1222 02A4                     l1134 003D                     l1126 001E  
                   l1160 0248                     l1152 0222                     l1144 0204  
                   l1312 03BE                     l1320 03D2                     l1304 03A5  
                   l1232 02BB                     l1240 02CB                     l1224 02AB  
                   l1128 0025                     l1400 04DB                     l1216 009D  
                   l1208 0084                     l1090 0163                     l1170 027B  
                   l1162 0258                     l1154 022F                     l1146 0214  
                   l1138 01EB                     l1322 03D6                     l1314 03C2  
                   l1306 03AB                     l1250 02E3                     l1242 02D3  
                   l1234 02C0                     l1226 02B1                     l1410 04FE  
                   l1402 04E0                     l1218 00AD                     l1092 016E  
                   l1084 014B                     l1172 0291                     l1164 0263  
                   l1156 0236                     l1340 0427                     l1332 03F7  
                   l1324 03D7                     l1316 03C3                     l1308 03B3  
                   l1252 02E8                     l1260 02F8                     l1244 02D8  
                   l1236 02C8                     l1228 02B5                     l1500 07D9  
                   l1420 058C                     l1412 050B                     l1404 04E5  
                   l1076 0010                     l1094 0172                     l1086 014E  
                   l1174 0296                     l1166 0267                     l1158 023A  
                   l1182 0FAF                     l1350 045B                     l1334 03FC  
                   l1342 042D                     l1326 03DB                     l1318 03CC  
                   l1262 0308                     l1270 0321                     l1254 02ED  
                   l1246 02DE                     l1238 02C9                     l1430 05EE  
                   l1422 05A8                     l1414 0528                     l1510 00C9  
                   l1096 017A                     l1088 0152                     l1176 029A  
                   l1168 0271                     l1352 0463                     l1344 043A  
                   l1336 040A                     l1328 03EF                     l1280 0349  
                   l1272 0326                     l1264 0314                     l1256 02F5  
                   l1248 02E2                     l1440 067E                     l1432 060B  
                   l1424 05B1                     l1416 0544                     l1408 04EE  
                   l1192 0058                     l1512 012B                     l1504 0F61  
                   l1520 0F4D                     l1098 0182                     l1178 029B  
                   l1354 046A                     l1346 0448                     l1338 040E  
                   l1290 0372                     l1282 0351                     l1266 0318  
                   l1258 02F6                     l1450 0710                     l1442 06AB  
                   l1434 0624                     l1426 05C1                     l1418 0570  
                   l1370 0492                     l1194 006D                     l1186 0042  
                   l1514 012E                     l1506 0F96                     l1522 0F58  
                   l1356 046E                     l1348 0457                     l1292 0376  
                   l1284 0359                     l1276 032F                     l1452 0719  
                   l1460 072D                     l1444 06D1                     l1436 0641  
                   l1428 05DE                     l1380 04A7                     l1372 0493  
                   l1364 0481                     l1196 006E                     l1188 004F  
                   l1516 013A                     l1508 00BE                     l1358 0470  
                   l1294 0377                     l1286 035B                     l1278 0341  
                   l1462 0731                     l1454 071D                     l1446 06F9  
                   l1438 066E                     l1390 04BF                     l1382 04AF  
                   l1374 0498                     l1366 0488                     l1198 0076  
                   l1518 0F3E                     l1288 0360                     l1296 0380  
                   l1480 0782                     l1472 0752                     l1464 0732  
                   l1456 071E                     l1448 0702                     l1392 04C4  
                   l1384 04B4                     l1376 049D                     l1368 048E  
                   l1298 0392                     l1490 07B9                     l1474 0757  
                   l1482 0788                     l1466 0736                     l1458 0727  
                   l1394 04C9                     l1386 04BA                     l1378 04A5  
                   l1492 07BB                     l1484 0795                     l1476 0765  
                   l1468 074A                     l1396 04D1                     l1388 04BE  
                   l1494 07C9                     l1486 07A0                     l1478 0769  
                   l1398 04D3                     l1496 07CD                     l1488 07AF  
                   l1498 07CE                     u1100 0152                     u1101 0151  
                   u1110 0163                     u1111 0162                     u1120 0182  
                   u1200 0029                     u1121 0181                     u1201 0028  
                   u1140 0196                     u1220 003D                     u2100 0778  
                   u2020 071D                     u1141 0195                     u1221 003C  
                   u2021 071C                     u2005 06FB                     u1310 0267  
                   u1230 01F0                     u2110 0795                     u1135 0187  
                   u1311 0266                     u1231 01EF                     u1215 0030  
                   u2111 0794                     u2015 0712                     u1160 01B1  
                   u1320 026D                     u1240 01F4                     u2120 07AF  
                   u2040 0731                     u1400 007C                     u1161 01B0  
                   u1321 026C                     u1305 025C                     u1241 01F3  
                   u2121 07AE                     u2105 0773                     u2041 0730  
                   u1401 007B                     u1330 0271                     u1250 0214  
                   u2130 07CD                     u2050 0736                     u1410 0083  
                   u1155 0198                     u1331 0270                     u1251 0213  
                   u2131 07CC                     u2115 0791                     u2051 0735  
                   u2035 0720                     u1411 0082                     u1180 01CF  
                   u1340 0286                     u1500 02C0                     u2060 074A  
                   u2140 0F71                     u1181 01CE                     u1165 01AD  
                   u1501 02BF                     u2125 07AB                     u2061 0749  
                   u1190 01D4                     u1350 0296                     u1270 0235  
                   u1510 02E2                     u2070 0751                     u1430 0095  
                   u2150 0F7A                     u1191 01D3                     u1175 01C1  
                   u1351 0295                     u1271 0234                     u1511 02E1  
                   u2071 0750                     u1431 0094                     u1360 029A  
                   u1520 02E8                     u2080 0757                     u1440 009C  
                   u2160 00C9                     u1361 0299                     u1345 0281  
                   u1265 0227                     u1521 02E7                     u2081 0756  
                   u1441 009B                     u1425 0085                     u2161 00C8  
                   u2145 0F6C                     u1290 0257                     u1370 0FD5  
                   u1610 0392                     u1530 02ED                     u2090 0769  
                   u2170 0137                     u1291 0256                     u1611 0391  
                   u1531 02EC                     u2091 0768                     u2171 0133  
                   u2155 0F75                     u1700 03F6                     u1620 03AB  
                   u1540 0308                     u1460 00AD                     u1380 004F  
                   u1285 0249                     u1701 03F5                     u1621 03AA  
                   u1605 0379                     u1541 0307                     u1461 00AC  
                   u1381 004E                     u1710 03FC                     u1630 03B3  
                   u1550 0326                     u1470 00B2                     u1390 0066  
                   u1375 0FD0                     u1711 03FB                     u1631 03B2  
                   u1615 038E                     u1551 0325                     u1471 00B1  
                   u1455 009F                     u1720 040E                     u1560 0360  
                   u1480 02B5                     u1800 04BE                     u2184 013A  
                   u1721 040D                     u1561 035F                     u1481 02B4  
                   u1801 04BD                     u1730 041D                     u1650 03C2  
                   u1490 02BB                     u1810 04C4                     u1651 03C1  
                   u1491 02BA                     u1811 04C3                     u1395 0061  
                   u1740 043A                     u1820 04C9                     u1741 0439  
                   u1645 03B7                     u1901 05D0                     u1821 04C8  
                   u1750 0457                     u1670 03D6                     u1590 0376  
                   u1902 05D7                     u1830 04E0                     u1751 0456  
                   u1735 0418                     u1671 03D5                     u1591 0375  
                   u1575 0362                     u1911 05FD                     u1903 05DE  
                   u1831 04DF                     u1760 046E                     u1680 03DB  
                   u1912 0604                     u1840 04E5                     u1761 046D  
                   u1745 0436                     u1681 03DA                     u1665 03C5  
                   u1585 036B                     u1913 060B                     u1841 04E4  
                   u1690 03EF                     u1770 0492                     u1755 0453  
                   u1691 03EE                     u1931 0633                     u1851 0536  
                   u1771 0491                     u1932 063A                     u1852 053D  
                   u1780 0498                     u1941 0660                     u1933 0641  
                   u1925 060D                     u1861 0552                     u1853 0544  
                   u1781 0497                     u1942 0667                     u1862 0559  
                   u1790 049D                     u1951 068D                     u1943 066E  
                   u1871 057E                     u1863 0560                     u1791 049C  
                   u1960 06B7                     u1952 0694                     u1872 0585  
                   u1953 069B                     u1881 059A                     u1873 058C  
                   u1882 05A1                     u1971 06C3                     u1883 05A8  
                   u1980 06DF                     u1972 06CA                     u1973 06D1  
                   u1965 06B2                     u1991 06EB                     u1895 05AA  
                   u1992 06F2                     u1993 06F9                     u1985 06DA  
           __CFG_WRT$OFF 0000                     _main 0F3E                     _freq 00A0  
                   btemp 007E                     start 0000          ___fldiv@new_exp 0042  
          ___fltol@sign1 006D          __end_of___aldiv 01E8                    ?_main 0070  
                  _CCP1X 00BD          __end_of___fldiv 0481                    _CCP1Y 00BC  
          __CFG_WDTE$OFF 0000          __end_of___flmul 07E2          __end_of___fltol 00BE  
         __CFG_BOREN$OFF 0000                    status 0003                    wtemp0 007E  
        __initialization 07E2             __end_of_main 0F61                   ??_main 007D  
     Pwm1_Init@frequency 0026               _Pwm1_Start 0010                   _CCPR1L 0015  
       __end_of___xxtofl 02A4           __CFG_PWRTE$OFF 0000    __end_of_Pwm_Call_Duty 1000  
     __size_of_Pwm1_Init 004E       __size_of_Pwm1_Duty 008D                ??___aldiv 0078  
              ??___fldiv 0038                ??___flmul 0052                ??___fltol 0068  
     __size_of__Umul8_16 0027             ___xxtofl@arg 002C             ___xxtofl@exp 002B  
           ___xxtofl@val 0026  __end_of__initialization 07FC               ___fltol@f1 0064  
         __pcstackCOMMON 0070             __pidataBANK1 000C        __end_of_Pwm1_Init 0FAF  
            ?_Pwm1_Start 0070        __end_of_Pwm1_Duty 014B        __end_of__Umul8_16 0042  
             __pmaintext 0F3E                  _T2CKPS0 0090                  _T2CKPS1 0091  
              ?___xxtofl 0026                  ___aldiv 014B                  ___fldiv 02A4  
                ___flmul 0481                  ___fltol 0042      __size_of_Pwm1_Start 000B  
                __ptext1 0010                  __ptext2 0F61                  __ptext3 00BE  
                __ptext4 0042                  __ptext5 0481                  __ptext6 001B  
                __ptext7 02A4                  __ptext8 0FAF                  __ptext9 01E8  
              _T2CONbits 0012               ??___xxtofl 0079         ___aldiv@dividend 0074  
   end_of_initialization 07FC         ___aldiv@quotient 0022            ___xxtofl@sign 002A  
              _TRISCbits 0087              ___fldiv@grs 0044              ___fldiv@rem 003D  
            ___flmul@grs 0058              _CCP1CONbits 0017      start_initialization 07E2  
 __size_of_Pwm_Call_Duty 0051             ??_Pwm1_Start 0070                _Pwm1_Init 0F61  
              _Pwm1_Duty 00BE                __Umul8_16 001B              __pdataBANK1 00A0  
     __end_of_Pwm1_Start 001B                ___fldiv@a 0030                ___fldiv@b 0034  
              ___flmul@a 004E                ___flmul@b 004A                ___latbits 0002  
          __pcstackBANK0 0020            __pcstackBANK1 00A4        __size_of___xxtofl 00BC  
             ?_Pwm1_Init 0026               ?_Pwm1_Duty 00A4            _Pwm_Call_Duty 0FAF  
               ?___aldiv 0070                 ?___fldiv 0030                 ?___flmul 004A  
               ?___fltol 0064               ?__Umul8_16 0070          ___aldiv@divisor 0070  
        ___aldiv@counter 0020           ?_Pwm_Call_Duty 0030              ??_Pwm1_Init 0079  
            ??_Pwm1_Duty 00A6              ??__Umul8_16 0072         __size_of___aldiv 009D  
       __size_of___fldiv 01DD         __size_of___flmul 0361         __size_of___fltol 007C  
               ___xxtofl 01E8                 __ptext10 014B            __size_of_main 0023  
        ??_Pwm_Call_Duty 0034   __Umul8_16@multiplicand 0070             ___aldiv@sign 0021  
          Pwm1_Duty@duty 00A4     __Umul8_16@multiplier 0078        __Umul8_16@product 0074  
